subtitle "Microchip MPLAB XC8 C Compiler v2.50 (Free license) build 20240725155939 Og1 "

pagewidth 120

	opt flic

	processor	16F877A
include "J:/Microchip/MPLABX/v6.20/packs/Microchip/PIC16Fxxx_DFP/1.6.156/xc8\pic\include\proc\16f877a.cgen.inc"
getbyte	macro	val,pos
	(((val) >> (8 * pos)) and 0xff)
endm
byte0	macro	val
	(getbyte(val,0))
endm
byte1	macro	val
	(getbyte(val,1))
endm
byte2	macro	val
	(getbyte(val,2))
endm
byte3	macro	val
	(getbyte(val,3))
endm
byte4	macro	val
	(getbyte(val,4))
endm
byte5	macro	val
	(getbyte(val,5))
endm
byte6	macro	val
	(getbyte(val,6))
endm
byte7	macro	val
	(getbyte(val,7))
endm
getword	macro	val,pos
	(((val) >> (8 * pos)) and 0xffff)
endm
word0	macro	val
	(getword(val,0))
endm
word1	macro	val
	(getword(val,2))
endm
word2	macro	val
	(getword(val,4))
endm
word3	macro	val
	(getword(val,6))
endm
gettword	macro	val,pos
	(((val) >> (8 * pos)) and 0xffffff)
endm
tword0	macro	val
	(gettword(val,0))
endm
tword1	macro	val
	(gettword(val,3))
endm
tword2	macro	val
	(gettword(val,6))
endm
getdword	macro	val,pos
	(((val) >> (8 * pos)) and 0xffffffff)
endm
dword0	macro	val
	(getdword(val,0))
endm
dword1	macro	val
	(getdword(val,4))
endm
clrc	macro
	bcf	3,0
	endm
clrz	macro
	bcf	3,2
	endm
setc	macro
	bsf	3,0
	endm
setz	macro
	bsf	3,2
	endm
skipc	macro
	btfss	3,0
	endm
skipz	macro
	btfss	3,2
	endm
skipnc	macro
	btfsc	3,0
	endm
skipnz	macro
	btfsc	3,2
	endm
# 54 "J:/Microchip/MPLABX/v6.20/packs/Microchip/PIC16Fxxx_DFP/1.6.156/xc8\pic\include\proc\pic16f877a.h"
INDF equ 00h ;# 
# 61 "J:/Microchip/MPLABX/v6.20/packs/Microchip/PIC16Fxxx_DFP/1.6.156/xc8\pic\include\proc\pic16f877a.h"
TMR0 equ 01h ;# 
# 68 "J:/Microchip/MPLABX/v6.20/packs/Microchip/PIC16Fxxx_DFP/1.6.156/xc8\pic\include\proc\pic16f877a.h"
PCL equ 02h ;# 
# 75 "J:/Microchip/MPLABX/v6.20/packs/Microchip/PIC16Fxxx_DFP/1.6.156/xc8\pic\include\proc\pic16f877a.h"
STATUS equ 03h ;# 
# 161 "J:/Microchip/MPLABX/v6.20/packs/Microchip/PIC16Fxxx_DFP/1.6.156/xc8\pic\include\proc\pic16f877a.h"
FSR equ 04h ;# 
# 168 "J:/Microchip/MPLABX/v6.20/packs/Microchip/PIC16Fxxx_DFP/1.6.156/xc8\pic\include\proc\pic16f877a.h"
PORTA equ 05h ;# 
# 218 "J:/Microchip/MPLABX/v6.20/packs/Microchip/PIC16Fxxx_DFP/1.6.156/xc8\pic\include\proc\pic16f877a.h"
PORTB equ 06h ;# 
# 280 "J:/Microchip/MPLABX/v6.20/packs/Microchip/PIC16Fxxx_DFP/1.6.156/xc8\pic\include\proc\pic16f877a.h"
PORTC equ 07h ;# 
# 342 "J:/Microchip/MPLABX/v6.20/packs/Microchip/PIC16Fxxx_DFP/1.6.156/xc8\pic\include\proc\pic16f877a.h"
PORTD equ 08h ;# 
# 404 "J:/Microchip/MPLABX/v6.20/packs/Microchip/PIC16Fxxx_DFP/1.6.156/xc8\pic\include\proc\pic16f877a.h"
PORTE equ 09h ;# 
# 436 "J:/Microchip/MPLABX/v6.20/packs/Microchip/PIC16Fxxx_DFP/1.6.156/xc8\pic\include\proc\pic16f877a.h"
PCLATH equ 0Ah ;# 
# 456 "J:/Microchip/MPLABX/v6.20/packs/Microchip/PIC16Fxxx_DFP/1.6.156/xc8\pic\include\proc\pic16f877a.h"
INTCON equ 0Bh ;# 
# 534 "J:/Microchip/MPLABX/v6.20/packs/Microchip/PIC16Fxxx_DFP/1.6.156/xc8\pic\include\proc\pic16f877a.h"
PIR1 equ 0Ch ;# 
# 596 "J:/Microchip/MPLABX/v6.20/packs/Microchip/PIC16Fxxx_DFP/1.6.156/xc8\pic\include\proc\pic16f877a.h"
PIR2 equ 0Dh ;# 
# 636 "J:/Microchip/MPLABX/v6.20/packs/Microchip/PIC16Fxxx_DFP/1.6.156/xc8\pic\include\proc\pic16f877a.h"
TMR1 equ 0Eh ;# 
# 643 "J:/Microchip/MPLABX/v6.20/packs/Microchip/PIC16Fxxx_DFP/1.6.156/xc8\pic\include\proc\pic16f877a.h"
TMR1L equ 0Eh ;# 
# 650 "J:/Microchip/MPLABX/v6.20/packs/Microchip/PIC16Fxxx_DFP/1.6.156/xc8\pic\include\proc\pic16f877a.h"
TMR1H equ 0Fh ;# 
# 657 "J:/Microchip/MPLABX/v6.20/packs/Microchip/PIC16Fxxx_DFP/1.6.156/xc8\pic\include\proc\pic16f877a.h"
T1CON equ 010h ;# 
# 732 "J:/Microchip/MPLABX/v6.20/packs/Microchip/PIC16Fxxx_DFP/1.6.156/xc8\pic\include\proc\pic16f877a.h"
TMR2 equ 011h ;# 
# 739 "J:/Microchip/MPLABX/v6.20/packs/Microchip/PIC16Fxxx_DFP/1.6.156/xc8\pic\include\proc\pic16f877a.h"
T2CON equ 012h ;# 
# 810 "J:/Microchip/MPLABX/v6.20/packs/Microchip/PIC16Fxxx_DFP/1.6.156/xc8\pic\include\proc\pic16f877a.h"
SSPBUF equ 013h ;# 
# 817 "J:/Microchip/MPLABX/v6.20/packs/Microchip/PIC16Fxxx_DFP/1.6.156/xc8\pic\include\proc\pic16f877a.h"
SSPCON equ 014h ;# 
# 887 "J:/Microchip/MPLABX/v6.20/packs/Microchip/PIC16Fxxx_DFP/1.6.156/xc8\pic\include\proc\pic16f877a.h"
CCPR1 equ 015h ;# 
# 894 "J:/Microchip/MPLABX/v6.20/packs/Microchip/PIC16Fxxx_DFP/1.6.156/xc8\pic\include\proc\pic16f877a.h"
CCPR1L equ 015h ;# 
# 901 "J:/Microchip/MPLABX/v6.20/packs/Microchip/PIC16Fxxx_DFP/1.6.156/xc8\pic\include\proc\pic16f877a.h"
CCPR1H equ 016h ;# 
# 908 "J:/Microchip/MPLABX/v6.20/packs/Microchip/PIC16Fxxx_DFP/1.6.156/xc8\pic\include\proc\pic16f877a.h"
CCP1CON equ 017h ;# 
# 966 "J:/Microchip/MPLABX/v6.20/packs/Microchip/PIC16Fxxx_DFP/1.6.156/xc8\pic\include\proc\pic16f877a.h"
RCSTA equ 018h ;# 
# 1061 "J:/Microchip/MPLABX/v6.20/packs/Microchip/PIC16Fxxx_DFP/1.6.156/xc8\pic\include\proc\pic16f877a.h"
TXREG equ 019h ;# 
# 1068 "J:/Microchip/MPLABX/v6.20/packs/Microchip/PIC16Fxxx_DFP/1.6.156/xc8\pic\include\proc\pic16f877a.h"
RCREG equ 01Ah ;# 
# 1075 "J:/Microchip/MPLABX/v6.20/packs/Microchip/PIC16Fxxx_DFP/1.6.156/xc8\pic\include\proc\pic16f877a.h"
CCPR2 equ 01Bh ;# 
# 1082 "J:/Microchip/MPLABX/v6.20/packs/Microchip/PIC16Fxxx_DFP/1.6.156/xc8\pic\include\proc\pic16f877a.h"
CCPR2L equ 01Bh ;# 
# 1089 "J:/Microchip/MPLABX/v6.20/packs/Microchip/PIC16Fxxx_DFP/1.6.156/xc8\pic\include\proc\pic16f877a.h"
CCPR2H equ 01Ch ;# 
# 1096 "J:/Microchip/MPLABX/v6.20/packs/Microchip/PIC16Fxxx_DFP/1.6.156/xc8\pic\include\proc\pic16f877a.h"
CCP2CON equ 01Dh ;# 
# 1154 "J:/Microchip/MPLABX/v6.20/packs/Microchip/PIC16Fxxx_DFP/1.6.156/xc8\pic\include\proc\pic16f877a.h"
ADRESH equ 01Eh ;# 
# 1161 "J:/Microchip/MPLABX/v6.20/packs/Microchip/PIC16Fxxx_DFP/1.6.156/xc8\pic\include\proc\pic16f877a.h"
ADCON0 equ 01Fh ;# 
# 1257 "J:/Microchip/MPLABX/v6.20/packs/Microchip/PIC16Fxxx_DFP/1.6.156/xc8\pic\include\proc\pic16f877a.h"
OPTION_REG equ 081h ;# 
# 1327 "J:/Microchip/MPLABX/v6.20/packs/Microchip/PIC16Fxxx_DFP/1.6.156/xc8\pic\include\proc\pic16f877a.h"
TRISA equ 085h ;# 
# 1377 "J:/Microchip/MPLABX/v6.20/packs/Microchip/PIC16Fxxx_DFP/1.6.156/xc8\pic\include\proc\pic16f877a.h"
TRISB equ 086h ;# 
# 1439 "J:/Microchip/MPLABX/v6.20/packs/Microchip/PIC16Fxxx_DFP/1.6.156/xc8\pic\include\proc\pic16f877a.h"
TRISC equ 087h ;# 
# 1501 "J:/Microchip/MPLABX/v6.20/packs/Microchip/PIC16Fxxx_DFP/1.6.156/xc8\pic\include\proc\pic16f877a.h"
TRISD equ 088h ;# 
# 1563 "J:/Microchip/MPLABX/v6.20/packs/Microchip/PIC16Fxxx_DFP/1.6.156/xc8\pic\include\proc\pic16f877a.h"
TRISE equ 089h ;# 
# 1620 "J:/Microchip/MPLABX/v6.20/packs/Microchip/PIC16Fxxx_DFP/1.6.156/xc8\pic\include\proc\pic16f877a.h"
PIE1 equ 08Ch ;# 
# 1682 "J:/Microchip/MPLABX/v6.20/packs/Microchip/PIC16Fxxx_DFP/1.6.156/xc8\pic\include\proc\pic16f877a.h"
PIE2 equ 08Dh ;# 
# 1722 "J:/Microchip/MPLABX/v6.20/packs/Microchip/PIC16Fxxx_DFP/1.6.156/xc8\pic\include\proc\pic16f877a.h"
PCON equ 08Eh ;# 
# 1756 "J:/Microchip/MPLABX/v6.20/packs/Microchip/PIC16Fxxx_DFP/1.6.156/xc8\pic\include\proc\pic16f877a.h"
SSPCON2 equ 091h ;# 
# 1818 "J:/Microchip/MPLABX/v6.20/packs/Microchip/PIC16Fxxx_DFP/1.6.156/xc8\pic\include\proc\pic16f877a.h"
PR2 equ 092h ;# 
# 1825 "J:/Microchip/MPLABX/v6.20/packs/Microchip/PIC16Fxxx_DFP/1.6.156/xc8\pic\include\proc\pic16f877a.h"
SSPADD equ 093h ;# 
# 1832 "J:/Microchip/MPLABX/v6.20/packs/Microchip/PIC16Fxxx_DFP/1.6.156/xc8\pic\include\proc\pic16f877a.h"
SSPSTAT equ 094h ;# 
# 2001 "J:/Microchip/MPLABX/v6.20/packs/Microchip/PIC16Fxxx_DFP/1.6.156/xc8\pic\include\proc\pic16f877a.h"
TXSTA equ 098h ;# 
# 2082 "J:/Microchip/MPLABX/v6.20/packs/Microchip/PIC16Fxxx_DFP/1.6.156/xc8\pic\include\proc\pic16f877a.h"
SPBRG equ 099h ;# 
# 2089 "J:/Microchip/MPLABX/v6.20/packs/Microchip/PIC16Fxxx_DFP/1.6.156/xc8\pic\include\proc\pic16f877a.h"
CMCON equ 09Ch ;# 
# 2159 "J:/Microchip/MPLABX/v6.20/packs/Microchip/PIC16Fxxx_DFP/1.6.156/xc8\pic\include\proc\pic16f877a.h"
CVRCON equ 09Dh ;# 
# 2224 "J:/Microchip/MPLABX/v6.20/packs/Microchip/PIC16Fxxx_DFP/1.6.156/xc8\pic\include\proc\pic16f877a.h"
ADRESL equ 09Eh ;# 
# 2231 "J:/Microchip/MPLABX/v6.20/packs/Microchip/PIC16Fxxx_DFP/1.6.156/xc8\pic\include\proc\pic16f877a.h"
ADCON1 equ 09Fh ;# 
# 2290 "J:/Microchip/MPLABX/v6.20/packs/Microchip/PIC16Fxxx_DFP/1.6.156/xc8\pic\include\proc\pic16f877a.h"
EEDATA equ 010Ch ;# 
# 2297 "J:/Microchip/MPLABX/v6.20/packs/Microchip/PIC16Fxxx_DFP/1.6.156/xc8\pic\include\proc\pic16f877a.h"
EEADR equ 010Dh ;# 
# 2304 "J:/Microchip/MPLABX/v6.20/packs/Microchip/PIC16Fxxx_DFP/1.6.156/xc8\pic\include\proc\pic16f877a.h"
EEDATH equ 010Eh ;# 
# 2311 "J:/Microchip/MPLABX/v6.20/packs/Microchip/PIC16Fxxx_DFP/1.6.156/xc8\pic\include\proc\pic16f877a.h"
EEADRH equ 010Fh ;# 
# 2318 "J:/Microchip/MPLABX/v6.20/packs/Microchip/PIC16Fxxx_DFP/1.6.156/xc8\pic\include\proc\pic16f877a.h"
EECON1 equ 018Ch ;# 
# 2363 "J:/Microchip/MPLABX/v6.20/packs/Microchip/PIC16Fxxx_DFP/1.6.156/xc8\pic\include\proc\pic16f877a.h"
EECON2 equ 018Dh ;# 
# 54 "J:/Microchip/MPLABX/v6.20/packs/Microchip/PIC16Fxxx_DFP/1.6.156/xc8\pic\include\proc\pic16f877a.h"
INDF equ 00h ;# 
# 61 "J:/Microchip/MPLABX/v6.20/packs/Microchip/PIC16Fxxx_DFP/1.6.156/xc8\pic\include\proc\pic16f877a.h"
TMR0 equ 01h ;# 
# 68 "J:/Microchip/MPLABX/v6.20/packs/Microchip/PIC16Fxxx_DFP/1.6.156/xc8\pic\include\proc\pic16f877a.h"
PCL equ 02h ;# 
# 75 "J:/Microchip/MPLABX/v6.20/packs/Microchip/PIC16Fxxx_DFP/1.6.156/xc8\pic\include\proc\pic16f877a.h"
STATUS equ 03h ;# 
# 161 "J:/Microchip/MPLABX/v6.20/packs/Microchip/PIC16Fxxx_DFP/1.6.156/xc8\pic\include\proc\pic16f877a.h"
FSR equ 04h ;# 
# 168 "J:/Microchip/MPLABX/v6.20/packs/Microchip/PIC16Fxxx_DFP/1.6.156/xc8\pic\include\proc\pic16f877a.h"
PORTA equ 05h ;# 
# 218 "J:/Microchip/MPLABX/v6.20/packs/Microchip/PIC16Fxxx_DFP/1.6.156/xc8\pic\include\proc\pic16f877a.h"
PORTB equ 06h ;# 
# 280 "J:/Microchip/MPLABX/v6.20/packs/Microchip/PIC16Fxxx_DFP/1.6.156/xc8\pic\include\proc\pic16f877a.h"
PORTC equ 07h ;# 
# 342 "J:/Microchip/MPLABX/v6.20/packs/Microchip/PIC16Fxxx_DFP/1.6.156/xc8\pic\include\proc\pic16f877a.h"
PORTD equ 08h ;# 
# 404 "J:/Microchip/MPLABX/v6.20/packs/Microchip/PIC16Fxxx_DFP/1.6.156/xc8\pic\include\proc\pic16f877a.h"
PORTE equ 09h ;# 
# 436 "J:/Microchip/MPLABX/v6.20/packs/Microchip/PIC16Fxxx_DFP/1.6.156/xc8\pic\include\proc\pic16f877a.h"
PCLATH equ 0Ah ;# 
# 456 "J:/Microchip/MPLABX/v6.20/packs/Microchip/PIC16Fxxx_DFP/1.6.156/xc8\pic\include\proc\pic16f877a.h"
INTCON equ 0Bh ;# 
# 534 "J:/Microchip/MPLABX/v6.20/packs/Microchip/PIC16Fxxx_DFP/1.6.156/xc8\pic\include\proc\pic16f877a.h"
PIR1 equ 0Ch ;# 
# 596 "J:/Microchip/MPLABX/v6.20/packs/Microchip/PIC16Fxxx_DFP/1.6.156/xc8\pic\include\proc\pic16f877a.h"
PIR2 equ 0Dh ;# 
# 636 "J:/Microchip/MPLABX/v6.20/packs/Microchip/PIC16Fxxx_DFP/1.6.156/xc8\pic\include\proc\pic16f877a.h"
TMR1 equ 0Eh ;# 
# 643 "J:/Microchip/MPLABX/v6.20/packs/Microchip/PIC16Fxxx_DFP/1.6.156/xc8\pic\include\proc\pic16f877a.h"
TMR1L equ 0Eh ;# 
# 650 "J:/Microchip/MPLABX/v6.20/packs/Microchip/PIC16Fxxx_DFP/1.6.156/xc8\pic\include\proc\pic16f877a.h"
TMR1H equ 0Fh ;# 
# 657 "J:/Microchip/MPLABX/v6.20/packs/Microchip/PIC16Fxxx_DFP/1.6.156/xc8\pic\include\proc\pic16f877a.h"
T1CON equ 010h ;# 
# 732 "J:/Microchip/MPLABX/v6.20/packs/Microchip/PIC16Fxxx_DFP/1.6.156/xc8\pic\include\proc\pic16f877a.h"
TMR2 equ 011h ;# 
# 739 "J:/Microchip/MPLABX/v6.20/packs/Microchip/PIC16Fxxx_DFP/1.6.156/xc8\pic\include\proc\pic16f877a.h"
T2CON equ 012h ;# 
# 810 "J:/Microchip/MPLABX/v6.20/packs/Microchip/PIC16Fxxx_DFP/1.6.156/xc8\pic\include\proc\pic16f877a.h"
SSPBUF equ 013h ;# 
# 817 "J:/Microchip/MPLABX/v6.20/packs/Microchip/PIC16Fxxx_DFP/1.6.156/xc8\pic\include\proc\pic16f877a.h"
SSPCON equ 014h ;# 
# 887 "J:/Microchip/MPLABX/v6.20/packs/Microchip/PIC16Fxxx_DFP/1.6.156/xc8\pic\include\proc\pic16f877a.h"
CCPR1 equ 015h ;# 
# 894 "J:/Microchip/MPLABX/v6.20/packs/Microchip/PIC16Fxxx_DFP/1.6.156/xc8\pic\include\proc\pic16f877a.h"
CCPR1L equ 015h ;# 
# 901 "J:/Microchip/MPLABX/v6.20/packs/Microchip/PIC16Fxxx_DFP/1.6.156/xc8\pic\include\proc\pic16f877a.h"
CCPR1H equ 016h ;# 
# 908 "J:/Microchip/MPLABX/v6.20/packs/Microchip/PIC16Fxxx_DFP/1.6.156/xc8\pic\include\proc\pic16f877a.h"
CCP1CON equ 017h ;# 
# 966 "J:/Microchip/MPLABX/v6.20/packs/Microchip/PIC16Fxxx_DFP/1.6.156/xc8\pic\include\proc\pic16f877a.h"
RCSTA equ 018h ;# 
# 1061 "J:/Microchip/MPLABX/v6.20/packs/Microchip/PIC16Fxxx_DFP/1.6.156/xc8\pic\include\proc\pic16f877a.h"
TXREG equ 019h ;# 
# 1068 "J:/Microchip/MPLABX/v6.20/packs/Microchip/PIC16Fxxx_DFP/1.6.156/xc8\pic\include\proc\pic16f877a.h"
RCREG equ 01Ah ;# 
# 1075 "J:/Microchip/MPLABX/v6.20/packs/Microchip/PIC16Fxxx_DFP/1.6.156/xc8\pic\include\proc\pic16f877a.h"
CCPR2 equ 01Bh ;# 
# 1082 "J:/Microchip/MPLABX/v6.20/packs/Microchip/PIC16Fxxx_DFP/1.6.156/xc8\pic\include\proc\pic16f877a.h"
CCPR2L equ 01Bh ;# 
# 1089 "J:/Microchip/MPLABX/v6.20/packs/Microchip/PIC16Fxxx_DFP/1.6.156/xc8\pic\include\proc\pic16f877a.h"
CCPR2H equ 01Ch ;# 
# 1096 "J:/Microchip/MPLABX/v6.20/packs/Microchip/PIC16Fxxx_DFP/1.6.156/xc8\pic\include\proc\pic16f877a.h"
CCP2CON equ 01Dh ;# 
# 1154 "J:/Microchip/MPLABX/v6.20/packs/Microchip/PIC16Fxxx_DFP/1.6.156/xc8\pic\include\proc\pic16f877a.h"
ADRESH equ 01Eh ;# 
# 1161 "J:/Microchip/MPLABX/v6.20/packs/Microchip/PIC16Fxxx_DFP/1.6.156/xc8\pic\include\proc\pic16f877a.h"
ADCON0 equ 01Fh ;# 
# 1257 "J:/Microchip/MPLABX/v6.20/packs/Microchip/PIC16Fxxx_DFP/1.6.156/xc8\pic\include\proc\pic16f877a.h"
OPTION_REG equ 081h ;# 
# 1327 "J:/Microchip/MPLABX/v6.20/packs/Microchip/PIC16Fxxx_DFP/1.6.156/xc8\pic\include\proc\pic16f877a.h"
TRISA equ 085h ;# 
# 1377 "J:/Microchip/MPLABX/v6.20/packs/Microchip/PIC16Fxxx_DFP/1.6.156/xc8\pic\include\proc\pic16f877a.h"
TRISB equ 086h ;# 
# 1439 "J:/Microchip/MPLABX/v6.20/packs/Microchip/PIC16Fxxx_DFP/1.6.156/xc8\pic\include\proc\pic16f877a.h"
TRISC equ 087h ;# 
# 1501 "J:/Microchip/MPLABX/v6.20/packs/Microchip/PIC16Fxxx_DFP/1.6.156/xc8\pic\include\proc\pic16f877a.h"
TRISD equ 088h ;# 
# 1563 "J:/Microchip/MPLABX/v6.20/packs/Microchip/PIC16Fxxx_DFP/1.6.156/xc8\pic\include\proc\pic16f877a.h"
TRISE equ 089h ;# 
# 1620 "J:/Microchip/MPLABX/v6.20/packs/Microchip/PIC16Fxxx_DFP/1.6.156/xc8\pic\include\proc\pic16f877a.h"
PIE1 equ 08Ch ;# 
# 1682 "J:/Microchip/MPLABX/v6.20/packs/Microchip/PIC16Fxxx_DFP/1.6.156/xc8\pic\include\proc\pic16f877a.h"
PIE2 equ 08Dh ;# 
# 1722 "J:/Microchip/MPLABX/v6.20/packs/Microchip/PIC16Fxxx_DFP/1.6.156/xc8\pic\include\proc\pic16f877a.h"
PCON equ 08Eh ;# 
# 1756 "J:/Microchip/MPLABX/v6.20/packs/Microchip/PIC16Fxxx_DFP/1.6.156/xc8\pic\include\proc\pic16f877a.h"
SSPCON2 equ 091h ;# 
# 1818 "J:/Microchip/MPLABX/v6.20/packs/Microchip/PIC16Fxxx_DFP/1.6.156/xc8\pic\include\proc\pic16f877a.h"
PR2 equ 092h ;# 
# 1825 "J:/Microchip/MPLABX/v6.20/packs/Microchip/PIC16Fxxx_DFP/1.6.156/xc8\pic\include\proc\pic16f877a.h"
SSPADD equ 093h ;# 
# 1832 "J:/Microchip/MPLABX/v6.20/packs/Microchip/PIC16Fxxx_DFP/1.6.156/xc8\pic\include\proc\pic16f877a.h"
SSPSTAT equ 094h ;# 
# 2001 "J:/Microchip/MPLABX/v6.20/packs/Microchip/PIC16Fxxx_DFP/1.6.156/xc8\pic\include\proc\pic16f877a.h"
TXSTA equ 098h ;# 
# 2082 "J:/Microchip/MPLABX/v6.20/packs/Microchip/PIC16Fxxx_DFP/1.6.156/xc8\pic\include\proc\pic16f877a.h"
SPBRG equ 099h ;# 
# 2089 "J:/Microchip/MPLABX/v6.20/packs/Microchip/PIC16Fxxx_DFP/1.6.156/xc8\pic\include\proc\pic16f877a.h"
CMCON equ 09Ch ;# 
# 2159 "J:/Microchip/MPLABX/v6.20/packs/Microchip/PIC16Fxxx_DFP/1.6.156/xc8\pic\include\proc\pic16f877a.h"
CVRCON equ 09Dh ;# 
# 2224 "J:/Microchip/MPLABX/v6.20/packs/Microchip/PIC16Fxxx_DFP/1.6.156/xc8\pic\include\proc\pic16f877a.h"
ADRESL equ 09Eh ;# 
# 2231 "J:/Microchip/MPLABX/v6.20/packs/Microchip/PIC16Fxxx_DFP/1.6.156/xc8\pic\include\proc\pic16f877a.h"
ADCON1 equ 09Fh ;# 
# 2290 "J:/Microchip/MPLABX/v6.20/packs/Microchip/PIC16Fxxx_DFP/1.6.156/xc8\pic\include\proc\pic16f877a.h"
EEDATA equ 010Ch ;# 
# 2297 "J:/Microchip/MPLABX/v6.20/packs/Microchip/PIC16Fxxx_DFP/1.6.156/xc8\pic\include\proc\pic16f877a.h"
EEADR equ 010Dh ;# 
# 2304 "J:/Microchip/MPLABX/v6.20/packs/Microchip/PIC16Fxxx_DFP/1.6.156/xc8\pic\include\proc\pic16f877a.h"
EEDATH equ 010Eh ;# 
# 2311 "J:/Microchip/MPLABX/v6.20/packs/Microchip/PIC16Fxxx_DFP/1.6.156/xc8\pic\include\proc\pic16f877a.h"
EEADRH equ 010Fh ;# 
# 2318 "J:/Microchip/MPLABX/v6.20/packs/Microchip/PIC16Fxxx_DFP/1.6.156/xc8\pic\include\proc\pic16f877a.h"
EECON1 equ 018Ch ;# 
# 2363 "J:/Microchip/MPLABX/v6.20/packs/Microchip/PIC16Fxxx_DFP/1.6.156/xc8\pic\include\proc\pic16f877a.h"
EECON2 equ 018Dh ;# 
	debug_source C
	FNCALL	_main,_lcd_cmd
	FNCALL	_main,_lcd_init
	FNCALL	_main,_lcd_string
	FNCALL	_lcd_string,_lcd_data
	FNCALL	_lcd_init,_lcd_cmd
	FNROOT	_main
	global	_PORTBbits
_PORTBbits	set	0x6
	global	_PORTB
_PORTB	set	0x6
	global	_TRISB
_TRISB	set	0x86
psect	strings,class=STRING,delta=2,noexec
global __pstrings
__pstrings:
stringtab:
	global    __stringtab
__stringtab:
;	String table - string pointers are 1 byte each
stringcode:stringdir:
movlw high(stringdir)
movwf pclath
movf fsr,w
incf fsr
	addwf pc
	global __stringbase
__stringbase:
	retlw	0
psect	strings
	global    __end_of__stringtab
__end_of__stringtab:
	
STR_2:	
	retlw	76	;'L'
	retlw	67	;'C'
	retlw	68	;'D'
	retlw	32	;' '
	retlw	68	;'D'
	retlw	73	;'I'
	retlw	83	;'S'
	retlw	80	;'P'
	retlw	76	;'L'
	retlw	65	;'A'
	retlw	89	;'Y'
	retlw	0
psect	strings
	
STR_1:	
	retlw	52	;'4'
	retlw	45	;'-'
	retlw	66	;'B'
	retlw	105	;'i'
	retlw	116	;'t'
	retlw	0
psect	strings
; #config settings
	config pad_punits      = on
	config apply_mask      = off
	config ignore_cmsgs    = off
	config default_configs = off
	config default_idlocs  = off
	config FOSC = "HS"
	config WDTE = "OFF"
	config PWRTE = "OFF"
	config BOREN = "OFF"
	config LVP = "ON"
	config CPD = "OFF"
	config WRT = "OFF"
	config CP = "OFF"
	file	"dist/default/production\4_Bit_LCD.X.production.s"
	line	#
psect cinit,class=CODE,delta=2
global start_initialization
start_initialization:

global __initialization
__initialization:
psect cinit,class=CODE,delta=2,merge=1
global end_of_initialization,__end_of__initialization

;End of C runtime variable initialization code

end_of_initialization:
__end_of__initialization:
clrf status
ljmp _main	;jump to C main() function
psect	cstackCOMMON,class=COMMON,space=1,noexec
global __pcstackCOMMON
__pcstackCOMMON:
?_lcd_data:	; 1 bytes @ 0x0
?_lcd_cmd:	; 1 bytes @ 0x0
?_lcd_init:	; 1 bytes @ 0x0
?_main:	; 1 bytes @ 0x0
??_lcd_data:	; 1 bytes @ 0x0
??_lcd_cmd:	; 1 bytes @ 0x0
	ds	2
	global	lcd_data@data
lcd_data@data:	; 1 bytes @ 0x2
	global	lcd_cmd@cmd
lcd_cmd@cmd:	; 1 bytes @ 0x2
	ds	1
?_lcd_string:	; 1 bytes @ 0x3
	global	lcd_string@str
lcd_string@str:	; 1 bytes @ 0x3
??_lcd_init:	; 1 bytes @ 0x3
	ds	1
	global	lcd_string@Num
lcd_string@Num:	; 2 bytes @ 0x4
	ds	2
	global	lcd_string@i
lcd_string@i:	; 2 bytes @ 0x6
??_lcd_string:	; 1 bytes @ 0x6
	ds	2
??_main:	; 1 bytes @ 0x8
;!
;!Data Sizes:
;!    Strings     18
;!    Constant    0
;!    Data        0
;!    BSS         0
;!    Persistent  0
;!    Stack       0
;!
;!Auto Spaces:
;!    Space          Size  Autos    Used
;!    COMMON           14      8       8
;!    BANK0            80      0       0
;!    BANK1            80      0       0
;!    BANK3            96      0       0
;!    BANK2            96      0       0

;!
;!Pointer List with Targets:
;!
;!    lcd_string@str	PTR unsigned char  size(1) Largest target is 12
;!		 -> STR_1(CODE[6]), STR_2(CODE[12]), 
;!


;!
;!Critical Paths under _main in COMMON
;!
;!    _main->_lcd_string
;!    _lcd_string->_lcd_data
;!    _lcd_init->_lcd_cmd
;!
;!Critical Paths under _main in BANK0
;!
;!    None.
;!
;!Critical Paths under _main in BANK1
;!
;!    None.
;!
;!Critical Paths under _main in BANK3
;!
;!    None.
;!
;!Critical Paths under _main in BANK2
;!
;!    None.

;;
;;Main: autosize = 0, tempsize = 0, incstack = 0, save=0
;;

;!
;!Call Graph Tables:
;!
;! ---------------------------------------------------------------------------------
;! (Depth) Function   	        Calls       Base Space   Used Autos Params    Refs
;! ---------------------------------------------------------------------------------
;! (0) _main                                                 0     0      0     184
;!                            _lcd_cmd
;!                           _lcd_init
;!                         _lcd_string
;! ---------------------------------------------------------------------------------
;! (1) _lcd_string                                           5     2      3     124
;!                                              3 COMMON     5     2      3
;!                           _lcd_data
;! ---------------------------------------------------------------------------------
;! (2) _lcd_data                                             3     3      0      30
;!                                              0 COMMON     3     3      0
;! ---------------------------------------------------------------------------------
;! (1) _lcd_init                                             0     0      0      30
;!                            _lcd_cmd
;! ---------------------------------------------------------------------------------
;! (2) _lcd_cmd                                              3     3      0      30
;!                                              0 COMMON     3     3      0
;! ---------------------------------------------------------------------------------
;! Estimated maximum stack depth 2
;! ---------------------------------------------------------------------------------
;!
;! Call Graph Graphs:
;!
;! _main (ROOT)
;!   _lcd_cmd
;!   _lcd_init
;!     _lcd_cmd
;!   _lcd_string
;!     _lcd_data
;!

;!Address spaces:

;!Name               Size   Autos  Total    Usage
;!BITCOMMON           14      0       0      0.0%
;!BITBANK0            80      0       0      0.0%
;!BITBANK1            80      0       0      0.0%
;!BITBANK3            96      0       0      0.0%
;!BITBANK2            96      0       0      0.0%
;!COMMON              14      8       8     57.1%
;!BANK0               80      0       0      0.0%
;!BANK1               80      0       0      0.0%
;!BANK3               96      0       0      0.0%
;!BANK2               96      0       0      0.0%
;!STACK                0      0       0      0.0%
;!DATA                 0      0       8      0.0%

	global	_main

;; *************** function _main *****************
;; Defined at:
;;		line 77 in file "main.c"
;; Parameters:    Size  Location     Type
;;		None
;; Auto vars:     Size  Location     Type
;;		None
;; Return value:  Size  Location     Type
;;                  1    wreg      void 
;; Registers used:
;;		wreg, fsr0l, fsr0h, status,2, status,0, pclath, cstack
;; Tracked objects:
;;		On entry : B00/0
;;		On exit  : 0/0
;;		Unchanged: 0/0
;; Data sizes:     COMMON   BANK0   BANK1   BANK3   BANK2
;;      Params:         0       0       0       0       0
;;      Locals:         0       0       0       0       0
;;      Temps:          0       0       0       0       0
;;      Totals:         0       0       0       0       0
;;Total ram usage:        0 bytes
;; Hardware stack levels required when called: 2
;; This function calls:
;;		_lcd_cmd
;;		_lcd_init
;;		_lcd_string
;; This function is called by:
;;		Startup code after reset
;; This function uses a non-reentrant model
;;
psect	maintext,global,class=CODE,delta=2,split=1,group=0
	file	"main.c"
	line	77
global __pmaintext
__pmaintext:	;psect for function _main
psect	maintext
	file	"main.c"
	line	77
	
_main:	
;incstack = 0
	callstack 6
; Regs used in _main: [wreg-fsr0h+status,2+status,0+pclath+cstack]
	line	80
	
l655:	
	bsf	status, 5	;RP0=1, select bank1
	bcf	status, 6	;RP1=0, select bank1
	clrf	(134)^080h	;volatile
	line	82
	
l657:	
	fcall	_lcd_init
	line	85
	
l659:	
	movlw	low(018h)
	fcall	_lcd_cmd
	line	86
	
l661:	
	movlw	low(08Fh)
	fcall	_lcd_cmd
	line	87
	
l663:	
	movlw	(low((((STR_1)-__stringbase)|8000h)))&0ffh
	movwf	(lcd_string@str)
	movlw	05h
	movwf	(lcd_string@Num)
	movlw	0
	movwf	((lcd_string@Num))+1
	fcall	_lcd_string
	line	88
	
l665:	
	movlw	low(0CFh)
	fcall	_lcd_cmd
	line	89
	
l667:	
	movlw	(low((((STR_2)-__stringbase)|8000h)))&0ffh
	movwf	(lcd_string@str)
	movlw	0Bh
	movwf	(lcd_string@Num)
	movlw	0
	movwf	((lcd_string@Num))+1
	fcall	_lcd_string
	goto	l659
	global	start
	ljmp	start
	callstack 0
	line	92
GLOBAL	__end_of_main
	__end_of_main:
	signat	_main,89
	global	_lcd_string

;; *************** function _lcd_string *****************
;; Defined at:
;;		line 58 in file "main.c"
;; Parameters:    Size  Location     Type
;;  str             1    3[COMMON] PTR unsigned char 
;;		 -> STR_2(12), STR_1(6), 
;;  Num             2    4[COMMON] unsigned int 
;; Auto vars:     Size  Location     Type
;;  i               2    6[COMMON] unsigned int 
;; Return value:  Size  Location     Type
;;                  1    wreg      void 
;; Registers used:
;;		wreg, fsr0l, fsr0h, status,2, status,0, pclath, cstack
;; Tracked objects:
;;		On entry : 0/0
;;		On exit  : 0/0
;;		Unchanged: 0/0
;; Data sizes:     COMMON   BANK0   BANK1   BANK3   BANK2
;;      Params:         3       0       0       0       0
;;      Locals:         2       0       0       0       0
;;      Temps:          0       0       0       0       0
;;      Totals:         5       0       0       0       0
;;Total ram usage:        5 bytes
;; Hardware stack levels used: 1
;; Hardware stack levels required when called: 1
;; This function calls:
;;		_lcd_data
;; This function is called by:
;;		_main
;; This function uses a non-reentrant model
;;
psect	text1,local,class=CODE,delta=2,merge=1,group=0
	line	58
global __ptext1
__ptext1:	;psect for function _lcd_string
psect	text1
	file	"main.c"
	line	58
	
_lcd_string:	
;incstack = 0
	callstack 6
; Regs used in _lcd_string: [wreg-fsr0h+status,2+status,0+pclath+cstack]
	line	62
	
l647:	
;main.c: 58:     TRISB = 0x00;;main.c: 59: ;main.c: 60:     lcd_init();;main.c: 62:     {
	clrf	(lcd_string@i)
	clrf	(lcd_string@i+1)
	goto	l653
	line	64
	
l649:	
;main.c: 63:     lcd_cmd(0x18);;main.c: 64:     lcd_cmd(0x8F);
	movf	(lcd_string@i),w
	addwf	(lcd_string@str),w
	movwf	fsr0
	fcall	stringdir
	fcall	_lcd_data
	line	65
	
l651:	
;main.c: 65:     lcd_string("4-Bit",5);
	movlw	01h
	addwf	(lcd_string@i),f
	skipnc
	incf	(lcd_string@i+1),f
	movlw	0
	addwf	(lcd_string@i+1),f
	
l653:	
	movf	(lcd_string@Num+1),w
	subwf	(lcd_string@i+1),w
	skipz
	goto	u45
	movf	(lcd_string@Num),w
	subwf	(lcd_string@i),w
u45:
	skipc
	goto	u41
	goto	u40
u41:
	goto	l649
u40:
	line	66
	
l20:	
	return
	callstack 0
GLOBAL	__end_of_lcd_string
	__end_of_lcd_string:
	signat	_lcd_string,8313
	global	_lcd_data

;; *************** function _lcd_data *****************
;; Defined at:
;;		line 26 in file "main.c"
;; Parameters:    Size  Location     Type
;;  data            1    wreg     unsigned char 
;; Auto vars:     Size  Location     Type
;;  data            1    2[COMMON] unsigned char 
;; Return value:  Size  Location     Type
;;                  1    wreg      void 
;; Registers used:
;;		wreg, status,2, status,0
;; Tracked objects:
;;		On entry : 0/0
;;		On exit  : 0/0
;;		Unchanged: 0/0
;; Data sizes:     COMMON   BANK0   BANK1   BANK3   BANK2
;;      Params:         0       0       0       0       0
;;      Locals:         1       0       0       0       0
;;      Temps:          2       0       0       0       0
;;      Totals:         3       0       0       0       0
;;Total ram usage:        3 bytes
;; Hardware stack levels used: 1
;; This function calls:
;;		Nothing
;; This function is called by:
;;		_lcd_string
;; This function uses a non-reentrant model
;;
psect	text2,local,class=CODE,delta=2,merge=1,group=0
	line	26
global __ptext2
__ptext2:	;psect for function _lcd_data
psect	text2
	file	"main.c"
	line	26
	
_lcd_data:	
;incstack = 0
	callstack 6
; Regs used in _lcd_data: [wreg+status,2+status,0]
;lcd_data@data stored from wreg
	movwf	(lcd_data@data)
	line	28
	
l575:	
;main.c: 26:     _delay((unsigned long)((5)*(20000000/4000.0)));;main.c: 27:     PORTBbits.RB2 = 0;;main.c: 28:     PORTB = ((cmd<<4) & 0xF0);
	movf	(lcd_data@data),w
	andlw	0F0h
	bcf	status, 5	;RP0=0, select bank0
	bcf	status, 6	;RP1=0, select bank0
	movwf	(6)	;volatile
	line	29
	
l577:	
;main.c: 29:     PORTBbits.RB0 = 0;
	bsf	(6),0	;volatile
	line	30
	
l579:	
;main.c: 30:     PORTBbits.RB1 = 0;
	bcf	(6),1	;volatile
	line	31
	
l581:	
;main.c: 31:     PORTBbits.RB2 = 1;
	bsf	(6),2	;volatile
	line	32
	
l583:	
;main.c: 32:     _delay((unsigned long)((5)*(20000000/4000.0)));
	asmopt push
asmopt off
movlw	33
movwf	((??_lcd_data+0)+0+1)
	movlw	118
movwf	((??_lcd_data+0)+0)
	u57:
decfsz	((??_lcd_data+0)+0),f
	goto	u57
	decfsz	((??_lcd_data+0)+0+1),f
	goto	u57
	nop
asmopt pop

	line	33
	
l585:	
;main.c: 33:     PORTBbits.RB2 = 0;
	bcf	status, 5	;RP0=0, select bank0
	bcf	status, 6	;RP1=0, select bank0
	bcf	(6),2	;volatile
	line	34
	
l587:	
;main.c: 34: }
	movf	(lcd_data@data),w
	movwf	(??_lcd_data+0)+0
	movlw	(04h)-1
u15:
	clrc
	rlf	(??_lcd_data+0)+0,f
	addlw	-1
	skipz
	goto	u15
	clrc
	rlf	(??_lcd_data+0)+0,w
	andlw	0F0h
	movwf	(6)	;volatile
	line	35
	
l589:	
;main.c: 35: 
	bsf	(6),0	;volatile
	line	36
	
l591:	
;main.c: 36: void lcd_string(unsigned char *str, unsigned int Num)
	bcf	(6),1	;volatile
	line	37
	
l593:	
;main.c: 37: {
	bsf	(6),2	;volatile
	line	38
	
l595:	
;main.c: 38:     unsigned int i;
	asmopt push
asmopt off
movlw	33
movwf	((??_lcd_data+0)+0+1)
	movlw	118
movwf	((??_lcd_data+0)+0)
	u67:
decfsz	((??_lcd_data+0)+0),f
	goto	u67
	decfsz	((??_lcd_data+0)+0+1),f
	goto	u67
	nop
asmopt pop

	line	39
	
l597:	
;main.c: 39: 
	bcf	status, 5	;RP0=0, select bank0
	bcf	status, 6	;RP1=0, select bank0
	bcf	(6),2	;volatile
	line	40
	
l11:	
	return
	callstack 0
GLOBAL	__end_of_lcd_data
	__end_of_lcd_data:
	signat	_lcd_data,4217
	global	_lcd_init

;; *************** function _lcd_init *****************
;; Defined at:
;;		line 68 in file "main.c"
;; Parameters:    Size  Location     Type
;;		None
;; Auto vars:     Size  Location     Type
;;		None
;; Return value:  Size  Location     Type
;;                  1    wreg      void 
;; Registers used:
;;		wreg, status,2, status,0, pclath, cstack
;; Tracked objects:
;;		On entry : 0/0
;;		On exit  : 0/0
;;		Unchanged: 0/0
;; Data sizes:     COMMON   BANK0   BANK1   BANK3   BANK2
;;      Params:         0       0       0       0       0
;;      Locals:         0       0       0       0       0
;;      Temps:          0       0       0       0       0
;;      Totals:         0       0       0       0       0
;;Total ram usage:        0 bytes
;; Hardware stack levels used: 1
;; Hardware stack levels required when called: 1
;; This function calls:
;;		_lcd_cmd
;; This function is called by:
;;		_main
;; This function uses a non-reentrant model
;;
psect	text3,local,class=CODE,delta=2,merge=1,group=0
	line	68
global __ptext3
__ptext3:	;psect for function _lcd_init
psect	text3
	file	"main.c"
	line	68
	
_lcd_init:	
;incstack = 0
	callstack 6
; Regs used in _lcd_init: [wreg+status,2+status,0+pclath+cstack]
	line	70
	
l631:	
;main.c: 70: }
	movlw	low(028h)
	fcall	_lcd_cmd
	line	71
	movlw	low(06h)
	fcall	_lcd_cmd
	line	72
	movlw	low(0Ch)
	fcall	_lcd_cmd
	line	73
	movlw	low(01h)
	fcall	_lcd_cmd
	line	74
	
l23:	
	return
	callstack 0
GLOBAL	__end_of_lcd_init
	__end_of_lcd_init:
	signat	_lcd_init,89
	global	_lcd_cmd

;; *************** function _lcd_cmd *****************
;; Defined at:
;;		line 42 in file "main.c"
;; Parameters:    Size  Location     Type
;;  cmd             1    wreg     unsigned char 
;; Auto vars:     Size  Location     Type
;;  cmd             1    2[COMMON] unsigned char 
;; Return value:  Size  Location     Type
;;                  1    wreg      void 
;; Registers used:
;;		wreg, status,2, status,0
;; Tracked objects:
;;		On entry : 0/0
;;		On exit  : 0/0
;;		Unchanged: 0/0
;; Data sizes:     COMMON   BANK0   BANK1   BANK3   BANK2
;;      Params:         0       0       0       0       0
;;      Locals:         1       0       0       0       0
;;      Temps:          2       0       0       0       0
;;      Totals:         3       0       0       0       0
;;Total ram usage:        3 bytes
;; Hardware stack levels used: 1
;; This function calls:
;;		Nothing
;; This function is called by:
;;		_lcd_init
;;		_main
;; This function uses a non-reentrant model
;;
psect	text4,local,class=CODE,delta=2,merge=1,group=0
	line	42
global __ptext4
__ptext4:	;psect for function _lcd_cmd
psect	text4
	file	"main.c"
	line	42
	
_lcd_cmd:	
;incstack = 0
	callstack 6
; Regs used in _lcd_cmd: [wreg+status,2+status,0]
;lcd_cmd@cmd stored from wreg
	movwf	(lcd_cmd@cmd)
	line	44
	
l599:	
;main.c: 42:         lcd_data(str[i]);;main.c: 43:     };main.c: 44: }
	movf	(lcd_cmd@cmd),w
	andlw	0F0h
	bcf	status, 5	;RP0=0, select bank0
	bcf	status, 6	;RP1=0, select bank0
	movwf	(6)	;volatile
	line	45
	
l601:	
;main.c: 45: 
	bcf	(6),0	;volatile
	line	46
	
l603:	
;main.c: 46: void lcd_init()
	bcf	(6),1	;volatile
	line	47
	
l605:	
;main.c: 47: {
	bsf	(6),2	;volatile
	line	48
	
l607:	
;main.c: 48:     lcd_cmd(0x28);
	asmopt push
asmopt off
movlw	33
movwf	((??_lcd_cmd+0)+0+1)
	movlw	118
movwf	((??_lcd_cmd+0)+0)
	u77:
decfsz	((??_lcd_cmd+0)+0),f
	goto	u77
	decfsz	((??_lcd_cmd+0)+0+1),f
	goto	u77
	nop
asmopt pop

	line	49
	
l609:	
;main.c: 49:     lcd_cmd(0x06);
	bcf	status, 5	;RP0=0, select bank0
	bcf	status, 6	;RP1=0, select bank0
	bcf	(6),2	;volatile
	line	50
	
l611:	
;main.c: 50:     lcd_cmd(0x0C);
	movf	(lcd_cmd@cmd),w
	movwf	(??_lcd_cmd+0)+0
	movlw	(04h)-1
u25:
	clrc
	rlf	(??_lcd_cmd+0)+0,f
	addlw	-1
	skipz
	goto	u25
	clrc
	rlf	(??_lcd_cmd+0)+0,w
	andlw	0F0h
	movwf	(6)	;volatile
	line	51
	
l613:	
;main.c: 51:     lcd_cmd(0x01);
	bcf	(6),0	;volatile
	line	52
	
l615:	
;main.c: 52: }
	bcf	(6),1	;volatile
	line	53
	
l617:	
;main.c: 53: 
	bsf	(6),2	;volatile
	line	54
	
l619:	
;main.c: 54: 
	asmopt push
asmopt off
movlw	33
movwf	((??_lcd_cmd+0)+0+1)
	movlw	118
movwf	((??_lcd_cmd+0)+0)
	u87:
decfsz	((??_lcd_cmd+0)+0),f
	goto	u87
	decfsz	((??_lcd_cmd+0)+0+1),f
	goto	u87
	nop
asmopt pop

	line	55
	
l621:	
;main.c: 55: void main(void)
	bcf	status, 5	;RP0=0, select bank0
	bcf	status, 6	;RP1=0, select bank0
	bcf	(6),2	;volatile
	line	56
	
l14:	
	return
	callstack 0
GLOBAL	__end_of_lcd_cmd
	__end_of_lcd_cmd:
	signat	_lcd_cmd,4217
global	___latbits
___latbits	equ	2
	global	btemp
	btemp set 07Eh

	DABS	1,126,2	;btemp
	global	wtemp0
	wtemp0 set btemp+0
	end
