

Microchip MPLAB XC8 Assembler V2.50 build 20240725155939 
                                                                                               Thu Dec 05 20:04:11 2024

Microchip MPLAB XC8 C Compiler v2.50 (Free license) build 20240725155939 Og1 
     1                           	processor	16F877A
     2                           	pagewidth 120
     3                           	opt	flic
     4                           	psect	strings,global,class=STRING,space=0,delta=2,noexec
     5                           	psect	cinit,global,class=CODE,space=0,merge=1,delta=2
     6                           	psect	bssCOMMON,global,class=COMMON,space=1,delta=1,noexec
     7                           	psect	bssBANK0,global,class=BANK0,space=1,delta=1,noexec
     8                           	psect	clrtext,global,class=CODE,space=0,delta=2
     9                           	psect	cstackCOMMON,global,class=COMMON,space=1,delta=1,noexec
    10                           	psect	cstackBANK0,global,class=BANK0,space=1,delta=1,noexec
    11                           	psect	maintext,global,class=CODE,space=0,split=1,delta=2
    12                           	psect	text1,local,class=CODE,space=0,merge=1,delta=2
    13                           	psect	text2,local,class=CODE,space=0,merge=1,delta=2
    14                           	psect	text3,local,class=CODE,space=0,merge=1,delta=2
    15                           	psect	text4,local,class=CODE,space=0,merge=1,delta=2
    16                           	psect	text5,local,class=CODE,space=0,merge=1,delta=2,group=1
    17                           	psect	text6,local,class=CODE,space=0,merge=1,delta=2,group=1
    18                           	psect	text7,local,class=CODE,space=0,merge=1,delta=2,group=1
    19                           	psect	text8,local,class=CODE,space=0,merge=1,delta=2,group=1
    20                           	psect	text9,local,class=CODE,space=0,merge=1,delta=2,group=1
    21                           	psect	text10,local,class=CODE,space=0,merge=1,delta=2,group=1
    22                           	psect	text11,local,class=CODE,space=0,merge=1,delta=2,group=1
    23                           	psect	text12,local,class=CODE,space=0,merge=1,delta=2,group=1
    24                           	psect	text13,local,class=CODE,space=0,merge=1,delta=2,group=1
    25                           	psect	text14,local,class=CODE,space=0,merge=1,delta=2
    26                           	psect	intentry,global,class=CODE,space=0,delta=2
    27                           	psect	config,global,abs,ovrld,class=CONFIG,space=4,delta=2,noexec
    28                           	dabs	1,0x7E,2
    29     0000                     
    30                           ; Generated 12/10/2023 GMT
    31                           ; 
    32                           ; Copyright © 2023, Microchip Technology Inc. and its subsidiaries ("Microchip")
    33                           ; All rights reserved.
    34                           ; 
    35                           ; This software is developed by Microchip Technology Inc. and its subsidiaries ("Microch
      +                          ip").
    36                           ; 
    37                           ; Redistribution and use in source and binary forms, with or without modification, are
    38                           ; permitted provided that the following conditions are met:
    39                           ; 
    40                           ;     1. Redistributions of source code must retain the above copyright notice, this lis
      +                          t of
    41                           ;        conditions and the following disclaimer.
    42                           ; 
    43                           ;     2. Redistributions in binary form must reproduce the above copyright notice, this 
      +                          list
    44                           ;        of conditions and the following disclaimer in the documentation and/or other
    45                           ;        materials provided with the distribution. Publication is not required when
    46                           ;        this file is used in an embedded application.
    47                           ; 
    48                           ;     3. Microchip's name may not be used to endorse or promote products derived from th
      +                          is
    49                           ;        software without specific prior written permission.
    50                           ; 
    51                           ; THIS SOFTWARE IS PROVIDED BY MICROCHIP "AS IS" AND ANY EXPRESS OR IMPLIED WARRANTIES,
    52                           ; INCLUDING, BUT NOT LIMITED TO, THE IMPLIED WARRANTIES OF MERCHANTABILITY AND FITNESS F
      +                          OR
    53                           ; PURPOSE ARE DISCLAIMED.  IN NO EVENT SHALL MICROCHIP BE LIABLE FOR ANY DIRECT, INDIREC
      +                          T,
    54                           ; INCIDENTAL, SPECIAL, EXEMPLARY, OR CONSEQUENTIAL DAMAGES (INCLUDING BUT NOT LIMITED TO
    55                           ; PROCUREMENT OF SUBSTITUTE GOODS OR SERVICES; LOSS OF USE, DATA OR PROFITS; OR BUSINESS
    56                           ; INTERRUPTION) HOWSOEVER CAUSED AND ON ANY THEORY OF LIABILITY, WHETHER IN CONTRACT, ST
      +                          RICT
    57                           ; LIABILITY, OR TORT (INCLUDING NEGLIGENCE OR OTHERWISE) ARISING IN ANY WAY OUT OF THE U
      +                          SE OF
    58                           ; THIS SOFTWARE, EVEN IF ADVISED OF THE POSSIBILITY OF SUCH DAMAGE.
    59                           ; 
    60                           ; 
    61                           ; Code-generator required, PIC16F877A Definitions
    62                           ; 
    63                           ; SFR Addresses
    64     0004                     fsr             equ	4
    65     0004                     fsr0            equ	4
    66     0000                     indf            equ	0
    67     0000                     indf0           equ	0
    68     0002                     pc              equ	2
    69     0002                     pcl             equ	2
    70     000A                     pclath          equ	10
    71     0003                     status          equ	3
    72     0000                     INDF            equ	0	;# 
    73     0001                     TMR0            equ	1	;# 
    74     0002                     PCL             equ	2	;# 
    75     0003                     STATUS          equ	3	;# 
    76     0004                     FSR             equ	4	;# 
    77     0005                     PORTA           equ	5	;# 
    78     0006                     PORTB           equ	6	;# 
    79     0007                     PORTC           equ	7	;# 
    80     0008                     PORTD           equ	8	;# 
    81     0009                     PORTE           equ	9	;# 
    82     000A                     PCLATH          equ	10	;# 
    83     000B                     INTCON          equ	11	;# 
    84     000C                     PIR1            equ	12	;# 
    85     000D                     PIR2            equ	13	;# 
    86     000E                     TMR1            equ	14	;# 
    87     000E                     TMR1L           equ	14	;# 
    88     000F                     TMR1H           equ	15	;# 
    89     0010                     T1CON           equ	16	;# 
    90     0011                     TMR2            equ	17	;# 
    91     0012                     T2CON           equ	18	;# 
    92     0013                     SSPBUF          equ	19	;# 
    93     0014                     SSPCON          equ	20	;# 
    94     0015                     CCPR1           equ	21	;# 
    95     0015                     CCPR1L          equ	21	;# 
    96     0016                     CCPR1H          equ	22	;# 
    97     0017                     CCP1CON         equ	23	;# 
    98     0018                     RCSTA           equ	24	;# 
    99     0019                     TXREG           equ	25	;# 
   100     001A                     RCREG           equ	26	;# 
   101     001B                     CCPR2           equ	27	;# 
   102     001B                     CCPR2L          equ	27	;# 
   103     001C                     CCPR2H          equ	28	;# 
   104     001D                     CCP2CON         equ	29	;# 
   105     001E                     ADRESH          equ	30	;# 
   106     001F                     ADCON0          equ	31	;# 
   107     0081                     OPTION_REG      equ	129	;# 
   108     0085                     TRISA           equ	133	;# 
   109     0086                     TRISB           equ	134	;# 
   110     0087                     TRISC           equ	135	;# 
   111     0088                     TRISD           equ	136	;# 
   112     0089                     TRISE           equ	137	;# 
   113     008C                     PIE1            equ	140	;# 
   114     008D                     PIE2            equ	141	;# 
   115     008E                     PCON            equ	142	;# 
   116     0091                     SSPCON2         equ	145	;# 
   117     0092                     PR2             equ	146	;# 
   118     0093                     SSPADD          equ	147	;# 
   119     0094                     SSPSTAT         equ	148	;# 
   120     0098                     TXSTA           equ	152	;# 
   121     0099                     SPBRG           equ	153	;# 
   122     009C                     CMCON           equ	156	;# 
   123     009D                     CVRCON          equ	157	;# 
   124     009E                     ADRESL          equ	158	;# 
   125     009F                     ADCON1          equ	159	;# 
   126     010C                     EEDATA          equ	268	;# 
   127     010D                     EEADR           equ	269	;# 
   128     010E                     EEDATH          equ	270	;# 
   129     010F                     EEADRH          equ	271	;# 
   130     018C                     EECON1          equ	396	;# 
   131     018D                     EECON2          equ	397	;# 
   132     0000                     INDF            equ	0	;# 
   133     0001                     TMR0            equ	1	;# 
   134     0002                     PCL             equ	2	;# 
   135     0003                     STATUS          equ	3	;# 
   136     0004                     FSR             equ	4	;# 
   137     0005                     PORTA           equ	5	;# 
   138     0006                     PORTB           equ	6	;# 
   139     0007                     PORTC           equ	7	;# 
   140     0008                     PORTD           equ	8	;# 
   141     0009                     PORTE           equ	9	;# 
   142     000A                     PCLATH          equ	10	;# 
   143     000B                     INTCON          equ	11	;# 
   144     000C                     PIR1            equ	12	;# 
   145     000D                     PIR2            equ	13	;# 
   146     000E                     TMR1            equ	14	;# 
   147     000E                     TMR1L           equ	14	;# 
   148     000F                     TMR1H           equ	15	;# 
   149     0010                     T1CON           equ	16	;# 
   150     0011                     TMR2            equ	17	;# 
   151     0012                     T2CON           equ	18	;# 
   152     0013                     SSPBUF          equ	19	;# 
   153     0014                     SSPCON          equ	20	;# 
   154     0015                     CCPR1           equ	21	;# 
   155     0015                     CCPR1L          equ	21	;# 
   156     0016                     CCPR1H          equ	22	;# 
   157     0017                     CCP1CON         equ	23	;# 
   158     0018                     RCSTA           equ	24	;# 
   159     0019                     TXREG           equ	25	;# 
   160     001A                     RCREG           equ	26	;# 
   161     001B                     CCPR2           equ	27	;# 
   162     001B                     CCPR2L          equ	27	;# 
   163     001C                     CCPR2H          equ	28	;# 
   164     001D                     CCP2CON         equ	29	;# 
   165     001E                     ADRESH          equ	30	;# 
   166     001F                     ADCON0          equ	31	;# 
   167     0081                     OPTION_REG      equ	129	;# 
   168     0085                     TRISA           equ	133	;# 
   169     0086                     TRISB           equ	134	;# 
   170     0087                     TRISC           equ	135	;# 
   171     0088                     TRISD           equ	136	;# 
   172     0089                     TRISE           equ	137	;# 
   173     008C                     PIE1            equ	140	;# 
   174     008D                     PIE2            equ	141	;# 
   175     008E                     PCON            equ	142	;# 
   176     0091                     SSPCON2         equ	145	;# 
   177     0092                     PR2             equ	146	;# 
   178     0093                     SSPADD          equ	147	;# 
   179     0094                     SSPSTAT         equ	148	;# 
   180     0098                     TXSTA           equ	152	;# 
   181     0099                     SPBRG           equ	153	;# 
   182     009C                     CMCON           equ	156	;# 
   183     009D                     CVRCON          equ	157	;# 
   184     009E                     ADRESL          equ	158	;# 
   185     009F                     ADCON1          equ	159	;# 
   186     010C                     EEDATA          equ	268	;# 
   187     010D                     EEADR           equ	269	;# 
   188     010E                     EEDATH          equ	270	;# 
   189     010F                     EEADRH          equ	271	;# 
   190     018C                     EECON1          equ	396	;# 
   191     018D                     EECON2          equ	397	;# 
   192     001F                     _ADCON0         set	31
   193     000B                     _INTCONbits     set	11
   194     001E                     _ADRESH         set	30
   195     000C                     _PIR1bits       set	12
   196     0006                     _PORTBbits      set	6
   197     0007                     _PORTC          set	7
   198     009F                     _ADCON1         set	159
   199     0087                     _TRISC          set	135
   200     0086                     _TRISB          set	134
   201     008C                     _PIE1bits       set	140
   202     009E                     _ADRESL         set	158
   203                           
   204                           	psect	strings
   205     0800                     __pstrings:
   206     0800                     stringtab:
   207     0800                     __stringtab:
   208     0800                     stringcode:	
   209                           ;	String table - string pointers are 1 byte each
   210                           
   211     0800                     stringdir:
   212     0800  3008               	movlw	high stringdir
   213     0801  008A               	movwf	10
   214     0802  0804               	movf	4,w
   215     0803  0A84               	incf	4,f
   216     0804  0782               	addwf	2,f
   217     0805                     __stringbase:
   218     0805  3400               	retlw	0
   219     0806                     __end_of__stringtab:
   220     0806                     STR_1:
   221     0806  3454               	retlw	84	;'T'
   222     0807  3465               	retlw	101	;'e'
   223     0808  346D               	retlw	109	;'m'
   224     0809  3470               	retlw	112	;'p'
   225     080A  343A               	retlw	58	;':'
   226     080B  3420               	retlw	32	;' '
   227     080C  3400               	retlw	0
   228                           
   229                           	psect	cinit
   230     0011                     start_initialization:	
   231                           ; #config settings
   232                           
   233     0011                     __initialization:
   234                           
   235                           ; Clear objects allocated to COMMON
   236     0011  01F5               	clrf	__pbssCOMMON& (0+127)
   237     0012  01F6               	clrf	(__pbssCOMMON+1)& (0+127)
   238     0013  01F7               	clrf	(__pbssCOMMON+2)& (0+127)
   239     0014  01F8               	clrf	(__pbssCOMMON+3)& (0+127)
   240                           
   241                           ; Clear objects allocated to BANK0
   242     0015  1383               	bcf	3,7	;select IRP bank0
   243     0016  3048               	movlw	low __pbssBANK0
   244     0017  0084               	movwf	4
   245     0018  305C               	movlw	low (__pbssBANK0+20)
   246     0019  120A  158A  2663  120A  118A  	fcall	clear_ram0
   247     001E                     end_of_initialization:	
   248                           ;End of C runtime variable initialization code
   249                           
   250     001E                     __end_of__initialization:
   251     001E  0183               	clrf	3
   252     001F  120A  118A  2D2E   	ljmp	_main	;jump to C main() function
   253                           
   254                           	psect	bssCOMMON
   255     0075                     __pbssCOMMON:
   256     0075                     _a:
   257     0075                     	ds	2
   258     0077                     _adc:
   259     0077                     	ds	2
   260                           
   261                           	psect	bssBANK0
   262     0048                     __pbssBANK0:
   263     0048                     _adc1:
   264     0048                     	ds	4
   265     004C                     _temperature:
   266     004C                     	ds	4
   267     0050                     _f:
   268     0050                     	ds	2
   269     0052                     _e:
   270     0052                     	ds	2
   271     0054                     _d:
   272     0054                     	ds	2
   273     0056                     _c:
   274     0056                     	ds	2
   275     0058                     _b:
   276     0058                     	ds	2
   277     005A                     _temp:
   278     005A                     	ds	2
   279                           
   280                           	psect	clrtext
   281     0E63                     clear_ram0:	
   282                           ;	Called with FSR containing the base address, and
   283                           ;	W with the last address+1
   284                           
   285     0E63  0064               	clrwdt	;clear the watchdog before getting into this loop
   286     0E64                     clrloop0:
   287     0E64  0180               	clrf	0	;clear RAM location pointed to by FSR
   288     0E65  0A84               	incf	4,f	;increment pointer
   289     0E66  0604               	xorwf	4,w	;XOR with final address
   290     0E67  1903               	btfsc	3,2	;have we reached the end yet?
   291     0E68  3400               	retlw	0	;all done for this memory range, return
   292     0E69  0604               	xorwf	4,w	;XOR again to restore value
   293     0E6A  2E64               	goto	clrloop0	;do the next byte
   294                           
   295                           	psect	cstackCOMMON
   296     0070                     __pcstackCOMMON:
   297     0070                     ?_lcd_data:
   298     0070                     ?_lcd_cmd:	
   299                           ; 1 bytes @ 0x0
   300                           
   301     0070                     ?_lcd_initialization:	
   302                           ; 1 bytes @ 0x0
   303                           
   304     0070                     ?_temp_sen:	
   305                           ; 1 bytes @ 0x0
   306                           
   307     0070                     ?_main:	
   308                           ; 1 bytes @ 0x0
   309                           
   310     0070                     ??_temp_sen:	
   311                           ; 1 bytes @ 0x0
   312                           
   313                           
   314                           ; 1 bytes @ 0x0
   315     0070                     	ds	5
   316     0075                     ??_lcd_string:
   317     0075                     ??_lcd_initialization:	
   318                           ; 1 bytes @ 0x5
   319                           
   320     0075                     ??_main:	
   321                           ; 1 bytes @ 0x5
   322                           
   323     0075                     ??___awdiv:	
   324                           ; 1 bytes @ 0x5
   325                           
   326     0075                     ??___awmod:	
   327                           ; 1 bytes @ 0x5
   328                           
   329     0075                     ??___lwdiv:	
   330                           ; 1 bytes @ 0x5
   331                           
   332     0075                     ??___lwmod:	
   333                           ; 1 bytes @ 0x5
   334                           
   335                           
   336                           	psect	cstackBANK0
   337     0020                     __pcstackBANK0:	
   338                           ; 1 bytes @ 0x5
   339                           
   340     0020                     ?__Umul8_16:
   341     0020                     ?___lwdiv:	
   342                           ; 2 bytes @ 0x0
   343                           
   344     0020                     ?___lwmod:	
   345                           ; 2 bytes @ 0x0
   346                           
   347     0020                     ?___fltol:	
   348                           ; 2 bytes @ 0x0
   349                           
   350     0020                     ?___xxtofl:	
   351                           ; 4 bytes @ 0x0
   352                           
   353     0020                     __Umul8_16@multiplicand:	
   354                           ; 4 bytes @ 0x0
   355                           
   356     0020                     ___lwdiv@divisor:	
   357                           ; 1 bytes @ 0x0
   358                           
   359     0020                     ___lwmod@divisor:	
   360                           ; 2 bytes @ 0x0
   361                           
   362     0020                     ___fltol@f1:	
   363                           ; 2 bytes @ 0x0
   364                           
   365     0020                     ___xxtofl@val:	
   366                           ; 4 bytes @ 0x0
   367                           
   368     0020                     ??_lcd_data:	
   369                           ; 4 bytes @ 0x0
   370                           
   371     0020                     ??_lcd_cmd:	
   372                           ; 1 bytes @ 0x0
   373                           
   374                           
   375                           ; 1 bytes @ 0x0
   376     0020                     	ds	2
   377     0022                     lcd_data@data:
   378     0022                     lcd_cmd@cmd:	
   379                           ; 1 bytes @ 0x2
   380                           
   381     0022                     ___lwdiv@dividend:	
   382                           ; 1 bytes @ 0x2
   383                           
   384     0022                     ___lwmod@dividend:	
   385                           ; 2 bytes @ 0x2
   386                           
   387     0022                     ??__Umul8_16:	
   388                           ; 2 bytes @ 0x2
   389                           
   390                           
   391                           ; 1 bytes @ 0x2
   392     0022                     	ds	1
   393     0023                     ?_lcd_string:
   394     0023                     lcd_string@str:	
   395                           ; 1 bytes @ 0x3
   396                           
   397                           
   398                           ; 1 bytes @ 0x3
   399     0023                     	ds	1
   400     0024                     ___lwdiv@counter:
   401     0024                     ___lwmod@counter:	
   402                           ; 1 bytes @ 0x4
   403                           
   404     0024                     lcd_string@n:	
   405                           ; 1 bytes @ 0x4
   406                           
   407     0024                     __Umul8_16@product:	
   408                           ; 2 bytes @ 0x4
   409                           
   410     0024                     ??___fltol:	
   411                           ; 2 bytes @ 0x4
   412                           
   413     0024                     ??___xxtofl:	
   414                           ; 1 bytes @ 0x4
   415                           
   416                           
   417                           ; 1 bytes @ 0x4
   418     0024                     	ds	1
   419     0025                     ___lwdiv@quotient:
   420                           
   421                           ; 2 bytes @ 0x5
   422     0025                     	ds	1
   423     0026                     lcd_string@i:
   424     0026                     __Umul8_16@word_mpld:	
   425                           ; 2 bytes @ 0x6
   426                           
   427                           
   428                           ; 2 bytes @ 0x6
   429     0026                     	ds	2
   430     0028                     ___fltol@sign1:
   431     0028                     __Umul8_16@multiplier:	
   432                           ; 1 bytes @ 0x8
   433                           
   434     0028                     ___xxtofl@sign:	
   435                           ; 1 bytes @ 0x8
   436                           
   437                           
   438                           ; 1 bytes @ 0x8
   439     0028                     	ds	1
   440     0029                     ?___flmul:
   441     0029                     ___fltol@exp1:	
   442                           ; 4 bytes @ 0x9
   443                           
   444     0029                     ___xxtofl@exp:	
   445                           ; 1 bytes @ 0x9
   446                           
   447     0029                     ___flmul@b:	
   448                           ; 1 bytes @ 0x9
   449                           
   450                           
   451                           ; 4 bytes @ 0x9
   452     0029                     	ds	1
   453     002A                     ?___awdiv:
   454     002A                     ?___awmod:	
   455                           ; 2 bytes @ 0xA
   456                           
   457     002A                     ___awdiv@divisor:	
   458                           ; 2 bytes @ 0xA
   459                           
   460     002A                     ___awmod@divisor:	
   461                           ; 2 bytes @ 0xA
   462                           
   463     002A                     ___xxtofl@arg:	
   464                           ; 2 bytes @ 0xA
   465                           
   466                           
   467                           ; 4 bytes @ 0xA
   468     002A                     	ds	2
   469     002C                     ___awdiv@dividend:
   470     002C                     ___awmod@dividend:	
   471                           ; 2 bytes @ 0xC
   472                           
   473                           
   474                           ; 2 bytes @ 0xC
   475     002C                     	ds	1
   476     002D                     ___flmul@a:
   477                           
   478                           ; 4 bytes @ 0xD
   479     002D                     	ds	1
   480     002E                     ?___fldiv:
   481     002E                     ___awdiv@counter:	
   482                           ; 4 bytes @ 0xE
   483                           
   484     002E                     ___awmod@counter:	
   485                           ; 1 bytes @ 0xE
   486                           
   487     002E                     ___fldiv@a:	
   488                           ; 1 bytes @ 0xE
   489                           
   490                           
   491                           ; 4 bytes @ 0xE
   492     002E                     	ds	1
   493     002F                     ___awdiv@sign:
   494     002F                     ___awmod@sign:	
   495                           ; 1 bytes @ 0xF
   496                           
   497                           
   498                           ; 1 bytes @ 0xF
   499     002F                     	ds	1
   500     0030                     ___awdiv@quotient:
   501                           
   502                           ; 2 bytes @ 0x10
   503     0030                     	ds	1
   504     0031                     ??___flmul:
   505                           
   506                           ; 1 bytes @ 0x11
   507     0031                     	ds	1
   508     0032                     ___fldiv@b:
   509                           
   510                           ; 4 bytes @ 0x12
   511     0032                     	ds	4
   512     0036                     ___flmul@sign:
   513     0036                     ??___fldiv:	
   514                           ; 1 bytes @ 0x16
   515                           
   516                           
   517                           ; 1 bytes @ 0x16
   518     0036                     	ds	1
   519     0037                     ___flmul@aexp:
   520                           
   521                           ; 1 bytes @ 0x17
   522     0037                     	ds	1
   523     0038                     ___flmul@grs:
   524                           
   525                           ; 4 bytes @ 0x18
   526     0038                     	ds	3
   527     003B                     ___fldiv@rem:
   528                           
   529                           ; 4 bytes @ 0x1B
   530     003B                     	ds	1
   531     003C                     ___flmul@bexp:
   532                           
   533                           ; 1 bytes @ 0x1C
   534     003C                     	ds	1
   535     003D                     ___flmul@prod:
   536                           
   537                           ; 4 bytes @ 0x1D
   538     003D                     	ds	2
   539     003F                     ___fldiv@sign:
   540                           
   541                           ; 1 bytes @ 0x1F
   542     003F                     	ds	1
   543     0040                     ___fldiv@new_exp:
   544                           
   545                           ; 2 bytes @ 0x20
   546     0040                     	ds	1
   547     0041                     ___flmul@temp:
   548                           
   549                           ; 2 bytes @ 0x21
   550     0041                     	ds	1
   551     0042                     ___fldiv@grs:
   552                           
   553                           ; 4 bytes @ 0x22
   554     0042                     	ds	4
   555     0046                     ___fldiv@bexp:
   556                           
   557                           ; 1 bytes @ 0x26
   558     0046                     	ds	1
   559     0047                     ___fldiv@aexp:
   560                           
   561                           ; 1 bytes @ 0x27
   562     0047                     	ds	1
   563                           
   564                           	psect	maintext
   565     052E                     __pmaintext:	
   566 ;;
   567 ;;Main: autosize = 0, tempsize = 0, incstack = 0, save=0
   568 ;;
   569 ;; *************** function _main *****************
   570 ;; Defined at:
   571 ;;		line 84 in file "main.c"
   572 ;; Parameters:    Size  Location     Type
   573 ;;		None
   574 ;; Auto vars:     Size  Location     Type
   575 ;;		None
   576 ;; Return value:  Size  Location     Type
   577 ;;                  1    wreg      void 
   578 ;; Registers used:
   579 ;;		wreg, fsr0l, fsr0h, status,2, status,0, btemp+1, pclath, cstack
   580 ;; Tracked objects:
   581 ;;		On entry : B00/0
   582 ;;		On exit  : 0/0
   583 ;;		Unchanged: 0/0
   584 ;; Data sizes:     COMMON   BANK0   BANK1   BANK3   BANK2
   585 ;;      Params:         0       0       0       0       0
   586 ;;      Locals:         0       0       0       0       0
   587 ;;      Temps:          0       0       0       0       0
   588 ;;      Totals:         0       0       0       0       0
   589 ;;Total ram usage:        0 bytes
   590 ;; Hardware stack levels required when called: 3
   591 ;; This function calls:
   592 ;;		___awdiv
   593 ;;		___awmod
   594 ;;		___fldiv
   595 ;;		___flmul
   596 ;;		___fltol
   597 ;;		___lwdiv
   598 ;;		___lwmod
   599 ;;		___xxtofl
   600 ;;		_lcd_cmd
   601 ;;		_lcd_data
   602 ;;		_lcd_initialization
   603 ;;		_lcd_string
   604 ;; This function is called by:
   605 ;;		Startup code after reset
   606 ;; This function uses a non-reentrant model
   607 ;;
   608                           
   609     052E                     _main:	
   610                           ;psect for function _main
   611                           
   612     052E                     l2101:	
   613                           ;incstack = 0
   614                           ; Regs used in _main: [wreg-fsr0h+status,2+status,0+btemp+1+pclath+cstack]
   615                           
   616                           
   617                           ;main.c: 86:     INTCONbits.GIE = 1;
   618     052E  178B               	bsf	11,7	;volatile
   619                           
   620                           ;main.c: 87:     INTCONbits.PEIE = 1;
   621     052F  170B               	bsf	11,6	;volatile
   622                           
   623                           ;main.c: 89:     PIE1bits.ADIE = 1;
   624     0530  1683               	bsf	3,5	;RP0=1, select bank1
   625     0531  1303               	bcf	3,6	;RP1=0, select bank1
   626     0532  170C               	bsf	12,6	;volatile
   627     0533                     l2103:
   628                           
   629                           ;main.c: 91:     TRISB = 0x00;
   630     0533  0186               	clrf	6	;volatile
   631                           
   632                           ;main.c: 93:     TRISC = 0x00;
   633     0534  0187               	clrf	7	;volatile
   634     0535                     l2105:
   635                           
   636                           ;main.c: 95:     lcd_initialization();
   637     0535  120A  158A  2699  120A  118A  	fcall	_lcd_initialization
   638     053A                     l2107:
   639                           
   640                           ;main.c: 97:     lcd_cmd(0x80);
   641     053A  3080               	movlw	128
   642     053B  120A  158A  266B  120A  118A  	fcall	_lcd_cmd
   643     0540                     l2109:
   644                           
   645                           ;main.c: 99:     lcd_string("Temp: ",6);
   646     0540  3001               	movlw	(low ((STR_1-__stringbase)| (0+32768)))& (0+255)
   647     0541  1283               	bcf	3,5	;RP0=0, select bank0
   648     0542  1303               	bcf	3,6	;RP1=0, select bank0
   649     0543  00A3               	movwf	lcd_string@str
   650     0544  3006               	movlw	6
   651     0545  00A4               	movwf	lcd_string@n
   652     0546  3000               	movlw	0
   653     0547  00A5               	movwf	lcd_string@n+1
   654     0548  120A  158A  26B2  120A  118A  	fcall	_lcd_string
   655     054D                     l2111:
   656                           
   657                           ;main.c: 101:     ADCON0 = 0x41;
   658     054D  3041               	movlw	65
   659     054E  1283               	bcf	3,5	;RP0=0, select bank0
   660     054F  1303               	bcf	3,6	;RP1=0, select bank0
   661     0550  009F               	movwf	31	;volatile
   662     0551                     l2113:
   663                           
   664                           ;main.c: 102:     ADCON1 = 0x8E;
   665     0551  308E               	movlw	142
   666     0552  1683               	bsf	3,5	;RP0=1, select bank1
   667     0553  1303               	bcf	3,6	;RP1=0, select bank1
   668     0554  009F               	movwf	31	;volatile
   669     0555                     l2115:
   670                           
   671                           ;main.c: 105:     {;main.c: 106:         ADCON0 = ADCON0 | (0x04);
   672     0555  1283               	bcf	3,5	;RP0=0, select bank0
   673     0556  1303               	bcf	3,6	;RP1=0, select bank0
   674     0557  081F               	movf	31,w	;volatile
   675     0558  3804               	iorlw	4
   676     0559  009F               	movwf	31	;volatile
   677     055A                     l2117:
   678                           
   679                           ;main.c: 108:         adc1 = adc / 2.046;
   680     055A  3040               	movlw	64
   681     055B  00B1               	movwf	___fldiv@a+3
   682     055C  3002               	movlw	2
   683     055D  00B0               	movwf	___fldiv@a+2
   684     055E  30F1               	movlw	241
   685     055F  00AF               	movwf	___fldiv@a+1
   686     0560  30AA               	movlw	170
   687     0561  00AE               	movwf	___fldiv@a
   688     0562  0877               	movf	_adc,w
   689     0563  00A0               	movwf	___xxtofl@val
   690     0564  0878               	movf	_adc+1,w
   691     0565  00A1               	movwf	___xxtofl@val+1
   692     0566  01A2               	clrf	___xxtofl@val+2
   693     0567  01A3               	clrf	___xxtofl@val+3
   694     0568  3000               	movlw	0
   695     0569  120A  118A  266A  120A  118A  	fcall	___xxtofl
   696     056E  1283               	bcf	3,5	;RP0=0, select bank0
   697     056F  1303               	bcf	3,6	;RP1=0, select bank0
   698     0570  0823               	movf	?___xxtofl+3,w
   699     0571  00B5               	movwf	___fldiv@b+3
   700     0572  0822               	movf	?___xxtofl+2,w
   701     0573  00B4               	movwf	___fldiv@b+2
   702     0574  0821               	movf	?___xxtofl+1,w
   703     0575  00B3               	movwf	___fldiv@b+1
   704     0576  0820               	movf	?___xxtofl,w
   705     0577  00B2               	movwf	___fldiv@b
   706     0578  120A  118A  2364  120A  118A  	fcall	___fldiv
   707     057D  1283               	bcf	3,5	;RP0=0, select bank0
   708     057E  1303               	bcf	3,6	;RP1=0, select bank0
   709     057F  0831               	movf	?___fldiv+3,w
   710     0580  00CB               	movwf	_adc1+3
   711     0581  0830               	movf	?___fldiv+2,w
   712     0582  00CA               	movwf	_adc1+2
   713     0583  082F               	movf	?___fldiv+1,w
   714     0584  00C9               	movwf	_adc1+1
   715     0585  082E               	movf	?___fldiv,w
   716     0586  00C8               	movwf	_adc1
   717     0587                     l2119:
   718                           
   719                           ;main.c: 110:         temperature = adc1 *100;
   720     0587  3042               	movlw	66
   721     0588  00AC               	movwf	___flmul@b+3
   722     0589  30C8               	movlw	200
   723     058A  00AB               	movwf	___flmul@b+2
   724     058B  3000               	movlw	0
   725     058C  00AA               	movwf	___flmul@b+1
   726     058D  3000               	movlw	0
   727     058E  00A9               	movwf	___flmul@b
   728     058F  084B               	movf	_adc1+3,w
   729     0590  00B0               	movwf	___flmul@a+3
   730     0591  084A               	movf	_adc1+2,w
   731     0592  00AF               	movwf	___flmul@a+2
   732     0593  0849               	movf	_adc1+1,w
   733     0594  00AE               	movwf	___flmul@a+1
   734     0595  0848               	movf	_adc1,w
   735     0596  00AD               	movwf	___flmul@a
   736     0597  120A  118A  2022  120A  118A  	fcall	___flmul
   737     059C  1283               	bcf	3,5	;RP0=0, select bank0
   738     059D  1303               	bcf	3,6	;RP1=0, select bank0
   739     059E  082C               	movf	?___flmul+3,w
   740     059F  00CF               	movwf	_temperature+3
   741     05A0  082B               	movf	?___flmul+2,w
   742     05A1  00CE               	movwf	_temperature+2
   743     05A2  082A               	movf	?___flmul+1,w
   744     05A3  00CD               	movwf	_temperature+1
   745     05A4  0829               	movf	?___flmul,w
   746     05A5  00CC               	movwf	_temperature
   747     05A6                     l2121:
   748                           
   749                           ;main.c: 112:         lcd_cmd(0x89);
   750     05A6  3089               	movlw	137
   751     05A7  120A  158A  266B  120A  118A  	fcall	_lcd_cmd
   752     05AC                     l2123:
   753                           
   754                           ;main.c: 114:         a = (int)temperature/10;
   755     05AC  300A               	movlw	10
   756     05AD  1283               	bcf	3,5	;RP0=0, select bank0
   757     05AE  1303               	bcf	3,6	;RP1=0, select bank0
   758     05AF  00AA               	movwf	___awdiv@divisor
   759     05B0  3000               	movlw	0
   760     05B1  00AB               	movwf	___awdiv@divisor+1
   761     05B2  084F               	movf	_temperature+3,w
   762     05B3  00A3               	movwf	___fltol@f1+3
   763     05B4  084E               	movf	_temperature+2,w
   764     05B5  00A2               	movwf	___fltol@f1+2
   765     05B6  084D               	movf	_temperature+1,w
   766     05B7  00A1               	movwf	___fltol@f1+1
   767     05B8  084C               	movf	_temperature,w
   768     05B9  00A0               	movwf	___fltol@f1
   769     05BA  120A  118A  2720  120A  118A  	fcall	___fltol
   770     05BF  1283               	bcf	3,5	;RP0=0, select bank0
   771     05C0  1303               	bcf	3,6	;RP1=0, select bank0
   772     05C1  0821               	movf	?___fltol+1,w
   773     05C2  00AD               	movwf	___awdiv@dividend+1
   774     05C3  0820               	movf	?___fltol,w
   775     05C4  00AC               	movwf	___awdiv@dividend
   776     05C5  120A  118A  2796  120A  118A  	fcall	___awdiv
   777     05CA  1283               	bcf	3,5	;RP0=0, select bank0
   778     05CB  1303               	bcf	3,6	;RP1=0, select bank0
   779     05CC  082B               	movf	?___awdiv+1,w
   780     05CD  00F6               	movwf	_a+1
   781     05CE  082A               	movf	?___awdiv,w
   782     05CF  00F5               	movwf	_a
   783     05D0                     l2125:
   784                           
   785                           ;main.c: 116:         b = (int)temperature%10;
   786     05D0  300A               	movlw	10
   787     05D1  00AA               	movwf	___awmod@divisor
   788     05D2  3000               	movlw	0
   789     05D3  00AB               	movwf	___awmod@divisor+1
   790     05D4  084F               	movf	_temperature+3,w
   791     05D5  00A3               	movwf	___fltol@f1+3
   792     05D6  084E               	movf	_temperature+2,w
   793     05D7  00A2               	movwf	___fltol@f1+2
   794     05D8  084D               	movf	_temperature+1,w
   795     05D9  00A1               	movwf	___fltol@f1+1
   796     05DA  084C               	movf	_temperature,w
   797     05DB  00A0               	movwf	___fltol@f1
   798     05DC  120A  118A  2720  120A  118A  	fcall	___fltol
   799     05E1  1283               	bcf	3,5	;RP0=0, select bank0
   800     05E2  1303               	bcf	3,6	;RP1=0, select bank0
   801     05E3  0821               	movf	?___fltol+1,w
   802     05E4  00AD               	movwf	___awmod@dividend+1
   803     05E5  0820               	movf	?___fltol,w
   804     05E6  00AC               	movwf	___awmod@dividend
   805     05E7  120A  158A  27A7  120A  118A  	fcall	___awmod
   806     05EC  1283               	bcf	3,5	;RP0=0, select bank0
   807     05ED  1303               	bcf	3,6	;RP1=0, select bank0
   808     05EE  082B               	movf	?___awmod+1,w
   809     05EF  00D9               	movwf	_b+1
   810     05F0  082A               	movf	?___awmod,w
   811     05F1  00D8               	movwf	_b
   812     05F2                     l2127:
   813                           
   814                           ;main.c: 118:         c = a%10;
   815     05F2  300A               	movlw	10
   816     05F3  00A0               	movwf	___lwmod@divisor
   817     05F4  3000               	movlw	0
   818     05F5  00A1               	movwf	___lwmod@divisor+1
   819     05F6  0876               	movf	_a+1,w
   820     05F7  00A3               	movwf	___lwmod@dividend+1
   821     05F8  0875               	movf	_a,w
   822     05F9  00A2               	movwf	___lwmod@dividend
   823     05FA  120A  158A  2729  120A  118A  	fcall	___lwmod
   824     05FF  1283               	bcf	3,5	;RP0=0, select bank0
   825     0600  1303               	bcf	3,6	;RP1=0, select bank0
   826     0601  0821               	movf	?___lwmod+1,w
   827     0602  00D7               	movwf	_c+1
   828     0603  0820               	movf	?___lwmod,w
   829     0604  00D6               	movwf	_c
   830     0605                     l2129:
   831                           
   832                           ;main.c: 120:         d = a/10;
   833     0605  300A               	movlw	10
   834     0606  00A0               	movwf	___lwdiv@divisor
   835     0607  3000               	movlw	0
   836     0608  00A1               	movwf	___lwdiv@divisor+1
   837     0609  0876               	movf	_a+1,w
   838     060A  00A3               	movwf	___lwdiv@dividend+1
   839     060B  0875               	movf	_a,w
   840     060C  00A2               	movwf	___lwdiv@dividend
   841     060D  120A  158A  2763  120A  118A  	fcall	___lwdiv
   842     0612  1283               	bcf	3,5	;RP0=0, select bank0
   843     0613  1303               	bcf	3,6	;RP1=0, select bank0
   844     0614  0821               	movf	?___lwdiv+1,w
   845     0615  00D5               	movwf	_d+1
   846     0616  0820               	movf	?___lwdiv,w
   847     0617  00D4               	movwf	_d
   848     0618                     l2131:
   849                           
   850                           ;main.c: 122:         e = d%10;
   851     0618  300A               	movlw	10
   852     0619  00A0               	movwf	___lwmod@divisor
   853     061A  3000               	movlw	0
   854     061B  00A1               	movwf	___lwmod@divisor+1
   855     061C  0855               	movf	_d+1,w
   856     061D  00A3               	movwf	___lwmod@dividend+1
   857     061E  0854               	movf	_d,w
   858     061F  00A2               	movwf	___lwmod@dividend
   859     0620  120A  158A  2729  120A  118A  	fcall	___lwmod
   860     0625  1283               	bcf	3,5	;RP0=0, select bank0
   861     0626  1303               	bcf	3,6	;RP1=0, select bank0
   862     0627  0821               	movf	?___lwmod+1,w
   863     0628  00D3               	movwf	_e+1
   864     0629  0820               	movf	?___lwmod,w
   865     062A  00D2               	movwf	_e
   866     062B                     l2133:
   867                           
   868                           ;main.c: 124:         f = d/10;
   869     062B  300A               	movlw	10
   870     062C  00A0               	movwf	___lwdiv@divisor
   871     062D  3000               	movlw	0
   872     062E  00A1               	movwf	___lwdiv@divisor+1
   873     062F  0855               	movf	_d+1,w
   874     0630  00A3               	movwf	___lwdiv@dividend+1
   875     0631  0854               	movf	_d,w
   876     0632  00A2               	movwf	___lwdiv@dividend
   877     0633  120A  158A  2763  120A  118A  	fcall	___lwdiv
   878     0638  1283               	bcf	3,5	;RP0=0, select bank0
   879     0639  1303               	bcf	3,6	;RP1=0, select bank0
   880     063A  0821               	movf	?___lwdiv+1,w
   881     063B  00D1               	movwf	_f+1
   882     063C  0820               	movf	?___lwdiv,w
   883     063D  00D0               	movwf	_f
   884     063E                     l2135:
   885                           
   886                           ;main.c: 128:         lcd_data(f+0x30);
   887     063E  0850               	movf	_f,w
   888     063F  3E30               	addlw	48
   889     0640  120A  158A  2682  120A  118A  	fcall	_lcd_data
   890     0645                     l2137:
   891                           
   892                           ;main.c: 129:         lcd_data(e+0x30);
   893     0645  1283               	bcf	3,5	;RP0=0, select bank0
   894     0646  1303               	bcf	3,6	;RP1=0, select bank0
   895     0647  0852               	movf	_e,w
   896     0648  3E30               	addlw	48
   897     0649  120A  158A  2682  120A  118A  	fcall	_lcd_data
   898     064E                     l2139:
   899                           
   900                           ;main.c: 130:         lcd_data('.');
   901     064E  302E               	movlw	46
   902     064F  120A  158A  2682  120A  118A  	fcall	_lcd_data
   903     0654                     l2141:
   904                           
   905                           ;main.c: 131:         lcd_data(c+0x30);
   906     0654  1283               	bcf	3,5	;RP0=0, select bank0
   907     0655  1303               	bcf	3,6	;RP1=0, select bank0
   908     0656  0856               	movf	_c,w
   909     0657  3E30               	addlw	48
   910     0658  120A  158A  2682  120A  118A  	fcall	_lcd_data
   911     065D                     l2143:
   912                           
   913                           ;main.c: 132:         lcd_data(b+0x30);
   914     065D  1283               	bcf	3,5	;RP0=0, select bank0
   915     065E  1303               	bcf	3,6	;RP1=0, select bank0
   916     065F  0858               	movf	_b,w
   917     0660  3E30               	addlw	48
   918     0661  120A  158A  2682  120A  118A  	fcall	_lcd_data
   919     0666  2D55               	goto	l2115
   920     0667  120A  118A  280E   	ljmp	start
   921     066A                     __end_of_main:
   922                           
   923                           	psect	text1
   924     0EB2                     __ptext1:	
   925 ;; *************** function _lcd_string *****************
   926 ;; Defined at:
   927 ;;		line 57 in file "main.c"
   928 ;; Parameters:    Size  Location     Type
   929 ;;  str             1    3[BANK0 ] PTR unsigned char 
   930 ;;		 -> STR_1(7), 
   931 ;;  n               2    4[BANK0 ] unsigned int 
   932 ;; Auto vars:     Size  Location     Type
   933 ;;  i               2    6[BANK0 ] int 
   934 ;; Return value:  Size  Location     Type
   935 ;;                  1    wreg      void 
   936 ;; Registers used:
   937 ;;		wreg, fsr0l, fsr0h, status,2, status,0, pclath, cstack
   938 ;; Tracked objects:
   939 ;;		On entry : 0/0
   940 ;;		On exit  : 0/0
   941 ;;		Unchanged: 0/0
   942 ;; Data sizes:     COMMON   BANK0   BANK1   BANK3   BANK2
   943 ;;      Params:         0       3       0       0       0
   944 ;;      Locals:         0       2       0       0       0
   945 ;;      Temps:          0       0       0       0       0
   946 ;;      Totals:         0       5       0       0       0
   947 ;;Total ram usage:        5 bytes
   948 ;; Hardware stack levels used: 1
   949 ;; Hardware stack levels required when called: 2
   950 ;; This function calls:
   951 ;;		_lcd_data
   952 ;; This function is called by:
   953 ;;		_main
   954 ;; This function uses a non-reentrant model
   955 ;;
   956                           
   957     0EB2                     _lcd_string:	
   958                           ;psect for function _lcd_string
   959                           
   960     0EB2                     l1823:	
   961                           ;incstack = 0
   962                           ; Regs used in _lcd_string: [wreg-fsr0h+status,2+status,0+pclath+cstack]
   963                           
   964                           
   965                           ;main.c: 57: void lcd_string(unsigned char *str, unsigned int n);main.c: 58: {;main.c: 5
      +                          9:     for(int i=0;i<n;i++)
   966     0EB2  1283               	bcf	3,5	;RP0=0, select bank0
   967     0EB3  1303               	bcf	3,6	;RP1=0, select bank0
   968     0EB4  01A6               	clrf	lcd_string@i
   969     0EB5  01A7               	clrf	lcd_string@i+1
   970     0EB6  2ECC               	goto	l1829
   971     0EB7                     l1825:
   972                           
   973                           ;main.c: 60:     {;main.c: 61:         lcd_data(str[i]);
   974     0EB7  0826               	movf	lcd_string@i,w
   975     0EB8  0723               	addwf	lcd_string@str,w
   976     0EB9  0084               	movwf	4
   977     0EBA  120A  158A  2000  120A  158A  	fcall	stringdir
   978     0EBF  120A  158A  2682  120A  158A  	fcall	_lcd_data
   979     0EC4                     l1827:
   980                           
   981                           ;main.c: 62:     }
   982     0EC4  3001               	movlw	1
   983     0EC5  1283               	bcf	3,5	;RP0=0, select bank0
   984     0EC6  1303               	bcf	3,6	;RP1=0, select bank0
   985     0EC7  07A6               	addwf	lcd_string@i,f
   986     0EC8  1803               	skipnc
   987     0EC9  0AA7               	incf	lcd_string@i+1,f
   988     0ECA  3000               	movlw	0
   989     0ECB  07A7               	addwf	lcd_string@i+1,f
   990     0ECC                     l1829:
   991     0ECC  0825               	movf	lcd_string@n+1,w
   992     0ECD  0227               	subwf	lcd_string@i+1,w
   993     0ECE  1D03               	skipz
   994     0ECF  2ED2               	goto	u2575
   995     0ED0  0824               	movf	lcd_string@n,w
   996     0ED1  0226               	subwf	lcd_string@i,w
   997     0ED2                     u2575:
   998     0ED2  1C03               	skipc
   999     0ED3  2ED5               	goto	u2571
  1000     0ED4  2ED6               	goto	u2570
  1001     0ED5                     u2571:
  1002     0ED5  2EB7               	goto	l1825
  1003     0ED6                     u2570:
  1004     0ED6                     l56:
  1005     0ED6  0008               	return
  1006     0ED7                     __end_of_lcd_string:
  1007                           
  1008                           	psect	text2
  1009     0E82                     __ptext2:	
  1010 ;; *************** function _lcd_data *****************
  1011 ;; Defined at:
  1012 ;;		line 37 in file "main.c"
  1013 ;; Parameters:    Size  Location     Type
  1014 ;;  data            1    wreg     unsigned char 
  1015 ;; Auto vars:     Size  Location     Type
  1016 ;;  data            1    2[BANK0 ] unsigned char 
  1017 ;; Return value:  Size  Location     Type
  1018 ;;                  1    wreg      void 
  1019 ;; Registers used:
  1020 ;;		wreg
  1021 ;; Tracked objects:
  1022 ;;		On entry : 0/0
  1023 ;;		On exit  : 0/0
  1024 ;;		Unchanged: 0/0
  1025 ;; Data sizes:     COMMON   BANK0   BANK1   BANK3   BANK2
  1026 ;;      Params:         0       0       0       0       0
  1027 ;;      Locals:         0       1       0       0       0
  1028 ;;      Temps:          0       2       0       0       0
  1029 ;;      Totals:         0       3       0       0       0
  1030 ;;Total ram usage:        3 bytes
  1031 ;; Hardware stack levels used: 1
  1032 ;; Hardware stack levels required when called: 1
  1033 ;; This function calls:
  1034 ;;		Nothing
  1035 ;; This function is called by:
  1036 ;;		_lcd_string
  1037 ;;		_main
  1038 ;; This function uses a non-reentrant model
  1039 ;;
  1040                           
  1041     0E82                     _lcd_data:	
  1042                           ;psect for function _lcd_data
  1043                           
  1044                           
  1045                           ;incstack = 0
  1046                           ; Regs used in _lcd_data: [wreg]
  1047                           ;lcd_data@data stored from wreg
  1048     0E82  1283               	bcf	3,5	;RP0=0, select bank0
  1049     0E83  1303               	bcf	3,6	;RP1=0, select bank0
  1050     0E84  00A2               	movwf	lcd_data@data
  1051     0E85                     l1789:
  1052                           
  1053                           ;main.c: 37: void lcd_data(unsigned char data);main.c: 38: {;main.c: 39:     PORTC = dat
      +                          a;
  1054     0E85  0822               	movf	lcd_data@data,w
  1055     0E86  0087               	movwf	7	;volatile
  1056     0E87                     l1791:
  1057                           
  1058                           ;main.c: 40:     PORTBbits.RB0 = 1;
  1059     0E87  1406               	bsf	6,0	;volatile
  1060     0E88                     l1793:
  1061                           
  1062                           ;main.c: 41:     PORTBbits.RB1 = 0;
  1063     0E88  1086               	bcf	6,1	;volatile
  1064     0E89                     l1795:
  1065                           
  1066                           ;main.c: 42:     PORTBbits.RB2 = 1;
  1067     0E89  1506               	bsf	6,2	;volatile
  1068                           
  1069                           ;main.c: 43:     _delay((unsigned long)((10)*(20000000/4000.0)));
  1070     0E8A  3041               	movlw	65
  1071     0E8B  1283               	bcf	3,5	;RP0=0, select bank0
  1072     0E8C  1303               	bcf	3,6	;RP1=0, select bank0
  1073     0E8D  00A1               	movwf	??_lcd_data+1
  1074     0E8E  30ED               	movlw	237
  1075     0E8F  00A0               	movwf	??_lcd_data
  1076     0E90                     u3327:
  1077     0E90  0BA0               	decfsz	??_lcd_data,f
  1078     0E91  2E90               	goto	u3327
  1079     0E92  0BA1               	decfsz	??_lcd_data+1,f
  1080     0E93  2E90               	goto	u3327
  1081     0E94  2E95               	nop2
  1082     0E95                     l1797:
  1083                           
  1084                           ;main.c: 44:     PORTBbits.RB2 = 0;
  1085     0E95  1283               	bcf	3,5	;RP0=0, select bank0
  1086     0E96  1303               	bcf	3,6	;RP1=0, select bank0
  1087     0E97  1106               	bcf	6,2	;volatile
  1088     0E98                     l47:
  1089     0E98  0008               	return
  1090     0E99                     __end_of_lcd_data:
  1091                           
  1092                           	psect	text3
  1093     0E99                     __ptext3:	
  1094 ;; *************** function _lcd_initialization *****************
  1095 ;; Defined at:
  1096 ;;		line 65 in file "main.c"
  1097 ;; Parameters:    Size  Location     Type
  1098 ;;		None
  1099 ;; Auto vars:     Size  Location     Type
  1100 ;;		None
  1101 ;; Return value:  Size  Location     Type
  1102 ;;                  1    wreg      void 
  1103 ;; Registers used:
  1104 ;;		wreg, status,2, status,0, pclath, cstack
  1105 ;; Tracked objects:
  1106 ;;		On entry : 0/0
  1107 ;;		On exit  : 0/0
  1108 ;;		Unchanged: 0/0
  1109 ;; Data sizes:     COMMON   BANK0   BANK1   BANK3   BANK2
  1110 ;;      Params:         0       0       0       0       0
  1111 ;;      Locals:         0       0       0       0       0
  1112 ;;      Temps:          0       0       0       0       0
  1113 ;;      Totals:         0       0       0       0       0
  1114 ;;Total ram usage:        0 bytes
  1115 ;; Hardware stack levels used: 1
  1116 ;; Hardware stack levels required when called: 2
  1117 ;; This function calls:
  1118 ;;		_lcd_cmd
  1119 ;; This function is called by:
  1120 ;;		_main
  1121 ;; This function uses a non-reentrant model
  1122 ;;
  1123                           
  1124     0E99                     _lcd_initialization:	
  1125                           ;psect for function _lcd_initialization
  1126                           
  1127     0E99                     l1831:	
  1128                           ;incstack = 0
  1129                           ; Regs used in _lcd_initialization: [wreg+status,2+status,0+pclath+cstack]
  1130                           
  1131                           
  1132                           ;main.c: 67:     lcd_cmd(0x38);
  1133     0E99  3038               	movlw	56
  1134     0E9A  120A  158A  266B  120A  158A  	fcall	_lcd_cmd
  1135                           
  1136                           ;main.c: 68:     lcd_cmd(0x06);
  1137     0E9F  3006               	movlw	6
  1138     0EA0  120A  158A  266B  120A  158A  	fcall	_lcd_cmd
  1139                           
  1140                           ;main.c: 69:     lcd_cmd(0x0C);
  1141     0EA5  300C               	movlw	12
  1142     0EA6  120A  158A  266B  120A  158A  	fcall	_lcd_cmd
  1143                           
  1144                           ;main.c: 70:     lcd_cmd(0x01);
  1145     0EAB  3001               	movlw	1
  1146     0EAC  120A  158A  266B  120A  158A  	fcall	_lcd_cmd
  1147     0EB1                     l59:
  1148     0EB1  0008               	return
  1149     0EB2                     __end_of_lcd_initialization:
  1150                           
  1151                           	psect	text4
  1152     0E6B                     __ptext4:	
  1153 ;; *************** function _lcd_cmd *****************
  1154 ;; Defined at:
  1155 ;;		line 47 in file "main.c"
  1156 ;; Parameters:    Size  Location     Type
  1157 ;;  cmd             1    wreg     unsigned char 
  1158 ;; Auto vars:     Size  Location     Type
  1159 ;;  cmd             1    2[BANK0 ] unsigned char 
  1160 ;; Return value:  Size  Location     Type
  1161 ;;                  1    wreg      void 
  1162 ;; Registers used:
  1163 ;;		wreg
  1164 ;; Tracked objects:
  1165 ;;		On entry : 0/0
  1166 ;;		On exit  : 0/0
  1167 ;;		Unchanged: 0/0
  1168 ;; Data sizes:     COMMON   BANK0   BANK1   BANK3   BANK2
  1169 ;;      Params:         0       0       0       0       0
  1170 ;;      Locals:         0       1       0       0       0
  1171 ;;      Temps:          0       2       0       0       0
  1172 ;;      Totals:         0       3       0       0       0
  1173 ;;Total ram usage:        3 bytes
  1174 ;; Hardware stack levels used: 1
  1175 ;; Hardware stack levels required when called: 1
  1176 ;; This function calls:
  1177 ;;		Nothing
  1178 ;; This function is called by:
  1179 ;;		_lcd_initialization
  1180 ;;		_main
  1181 ;; This function uses a non-reentrant model
  1182 ;;
  1183                           
  1184     0E6B                     _lcd_cmd:	
  1185                           ;psect for function _lcd_cmd
  1186                           
  1187                           
  1188                           ;incstack = 0
  1189                           ; Regs used in _lcd_cmd: [wreg]
  1190                           ;lcd_cmd@cmd stored from wreg
  1191     0E6B  1283               	bcf	3,5	;RP0=0, select bank0
  1192     0E6C  1303               	bcf	3,6	;RP1=0, select bank0
  1193     0E6D  00A2               	movwf	lcd_cmd@cmd
  1194     0E6E                     l1799:
  1195                           
  1196                           ;main.c: 47: void lcd_cmd(unsigned char cmd);main.c: 48: {;main.c: 49:     PORTC = cmd;
  1197     0E6E  0822               	movf	lcd_cmd@cmd,w
  1198     0E6F  0087               	movwf	7	;volatile
  1199     0E70                     l1801:
  1200                           
  1201                           ;main.c: 50:     PORTBbits.RB0 = 0;
  1202     0E70  1006               	bcf	6,0	;volatile
  1203     0E71                     l1803:
  1204                           
  1205                           ;main.c: 51:     PORTBbits.RB1 = 0;
  1206     0E71  1086               	bcf	6,1	;volatile
  1207     0E72                     l1805:
  1208                           
  1209                           ;main.c: 52:     PORTBbits.RB2 = 1;
  1210     0E72  1506               	bsf	6,2	;volatile
  1211                           
  1212                           ;main.c: 53:     _delay((unsigned long)((10)*(20000000/4000.0)));
  1213     0E73  3041               	movlw	65
  1214     0E74  1283               	bcf	3,5	;RP0=0, select bank0
  1215     0E75  1303               	bcf	3,6	;RP1=0, select bank0
  1216     0E76  00A1               	movwf	??_lcd_cmd+1
  1217     0E77  30ED               	movlw	237
  1218     0E78  00A0               	movwf	??_lcd_cmd
  1219     0E79                     u3337:
  1220     0E79  0BA0               	decfsz	??_lcd_cmd,f
  1221     0E7A  2E79               	goto	u3337
  1222     0E7B  0BA1               	decfsz	??_lcd_cmd+1,f
  1223     0E7C  2E79               	goto	u3337
  1224     0E7D  2E7E               	nop2
  1225     0E7E                     l1807:
  1226                           
  1227                           ;main.c: 54:     PORTBbits.RB2 = 0;
  1228     0E7E  1283               	bcf	3,5	;RP0=0, select bank0
  1229     0E7F  1303               	bcf	3,6	;RP1=0, select bank0
  1230     0E80  1106               	bcf	6,2	;volatile
  1231     0E81                     l50:
  1232     0E81  0008               	return
  1233     0E82                     __end_of_lcd_cmd:
  1234                           
  1235                           	psect	text5
  1236     066A                     __ptext5:	
  1237 ;; *************** function ___xxtofl *****************
  1238 ;; Defined at:
  1239 ;;		line 10 in file "J:\Microchip\xc8\v2.50\pic\sources\c99\common\xxtofl.c"
  1240 ;; Parameters:    Size  Location     Type
  1241 ;;  sign            1    wreg     unsigned char 
  1242 ;;  val             4    0[BANK0 ] long 
  1243 ;; Auto vars:     Size  Location     Type
  1244 ;;  sign            1    8[BANK0 ] unsigned char 
  1245 ;;  arg             4   10[BANK0 ] unsigned long 
  1246 ;;  exp             1    9[BANK0 ] unsigned char 
  1247 ;; Return value:  Size  Location     Type
  1248 ;;                  4    0[BANK0 ] unsigned char 
  1249 ;; Registers used:
  1250 ;;		wreg, status,2, status,0
  1251 ;; Tracked objects:
  1252 ;;		On entry : 0/0
  1253 ;;		On exit  : 0/0
  1254 ;;		Unchanged: 0/0
  1255 ;; Data sizes:     COMMON   BANK0   BANK1   BANK3   BANK2
  1256 ;;      Params:         0       4       0       0       0
  1257 ;;      Locals:         0       6       0       0       0
  1258 ;;      Temps:          0       4       0       0       0
  1259 ;;      Totals:         0      14       0       0       0
  1260 ;;Total ram usage:       14 bytes
  1261 ;; Hardware stack levels used: 1
  1262 ;; Hardware stack levels required when called: 1
  1263 ;; This function calls:
  1264 ;;		Nothing
  1265 ;; This function is called by:
  1266 ;;		_main
  1267 ;; This function uses a non-reentrant model
  1268 ;;
  1269                           
  1270     066A                     ___xxtofl:	
  1271                           ;psect for function ___xxtofl
  1272                           
  1273                           
  1274                           ;incstack = 0
  1275                           ; Regs used in ___xxtofl: [wreg+status,2+status,0]
  1276                           ;___xxtofl@sign stored from wreg
  1277     066A  1283               	bcf	3,5	;RP0=0, select bank0
  1278     066B  1303               	bcf	3,6	;RP1=0, select bank0
  1279     066C  00A8               	movwf	___xxtofl@sign
  1280     066D                     l2059:
  1281     066D  0828               	movf	___xxtofl@sign,w
  1282     066E  1903               	btfsc	3,2
  1283     066F  2E71               	goto	u3181
  1284     0670  2E72               	goto	u3180
  1285     0671                     u3181:
  1286     0671  2E86               	goto	l2065
  1287     0672                     u3180:
  1288     0672                     l2061:
  1289     0672  1FA3               	btfss	___xxtofl@val+3,7
  1290     0673  2E75               	goto	u3191
  1291     0674  2E76               	goto	u3190
  1292     0675                     u3191:
  1293     0675  2E86               	goto	l2065
  1294     0676                     u3190:
  1295     0676                     l2063:
  1296     0676  0920               	comf	___xxtofl@val,w
  1297     0677  00AA               	movwf	___xxtofl@arg
  1298     0678  0921               	comf	___xxtofl@val+1,w
  1299     0679  00AB               	movwf	___xxtofl@arg+1
  1300     067A  0922               	comf	___xxtofl@val+2,w
  1301     067B  00AC               	movwf	___xxtofl@arg+2
  1302     067C  0923               	comf	___xxtofl@val+3,w
  1303     067D  00AD               	movwf	___xxtofl@arg+3
  1304     067E  0AAA               	incf	___xxtofl@arg,f
  1305     067F  1903               	skipnz
  1306     0680  0AAB               	incf	___xxtofl@arg+1,f
  1307     0681  1903               	skipnz
  1308     0682  0AAC               	incf	___xxtofl@arg+2,f
  1309     0683  1903               	skipnz
  1310     0684  0AAD               	incf	___xxtofl@arg+3,f
  1311     0685  2E8E               	goto	l600
  1312     0686                     l2065:
  1313     0686  0823               	movf	___xxtofl@val+3,w
  1314     0687  00AD               	movwf	___xxtofl@arg+3
  1315     0688  0822               	movf	___xxtofl@val+2,w
  1316     0689  00AC               	movwf	___xxtofl@arg+2
  1317     068A  0821               	movf	___xxtofl@val+1,w
  1318     068B  00AB               	movwf	___xxtofl@arg+1
  1319     068C  0820               	movf	___xxtofl@val,w
  1320     068D  00AA               	movwf	___xxtofl@arg
  1321     068E                     l600:
  1322     068E  0823               	movf	___xxtofl@val+3,w
  1323     068F  0422               	iorwf	___xxtofl@val+2,w
  1324     0690  0421               	iorwf	___xxtofl@val+1,w
  1325     0691  0420               	iorwf	___xxtofl@val,w
  1326     0692  1D03               	skipz
  1327     0693  2E95               	goto	u3201
  1328     0694  2E96               	goto	u3200
  1329     0695                     u3201:
  1330     0695  2E9F               	goto	l601
  1331     0696                     u3200:
  1332     0696                     l2067:
  1333     0696  3000               	movlw	0
  1334     0697  00A3               	movwf	?___xxtofl+3
  1335     0698  3000               	movlw	0
  1336     0699  00A2               	movwf	?___xxtofl+2
  1337     069A  3000               	movlw	0
  1338     069B  00A1               	movwf	?___xxtofl+1
  1339     069C  3000               	movlw	0
  1340     069D  00A0               	movwf	?___xxtofl
  1341     069E  2F1F               	goto	l602
  1342     069F                     l601:
  1343     069F  3096               	movlw	150
  1344     06A0  00A9               	movwf	___xxtofl@exp
  1345     06A1  2EAD               	goto	l2073
  1346     06A2                     l2071:
  1347     06A2  3001               	movlw	1
  1348     06A3  07A9               	addwf	___xxtofl@exp,f
  1349     06A4  3001               	movlw	1
  1350     06A5                     u3215:
  1351     06A5  1003               	clrc
  1352     06A6  0CAD               	rrf	___xxtofl@arg+3,f
  1353     06A7  0CAC               	rrf	___xxtofl@arg+2,f
  1354     06A8  0CAB               	rrf	___xxtofl@arg+1,f
  1355     06A9  0CAA               	rrf	___xxtofl@arg,f
  1356     06AA  3EFF               	addlw	-1
  1357     06AB  1D03               	skipz
  1358     06AC  2EA5               	goto	u3215
  1359     06AD                     l2073:
  1360     06AD  30FE               	movlw	254
  1361     06AE  052D               	andwf	___xxtofl@arg+3,w
  1362     06AF  1D03               	btfss	3,2
  1363     06B0  2EB2               	goto	u3221
  1364     06B1  2EB3               	goto	u3220
  1365     06B2                     u3221:
  1366     06B2  2EA2               	goto	l2071
  1367     06B3                     u3220:
  1368     06B3  2ECD               	goto	l606
  1369     06B4                     l2075:
  1370     06B4  3001               	movlw	1
  1371     06B5  07A9               	addwf	___xxtofl@exp,f
  1372     06B6                     l2077:
  1373     06B6  3001               	movlw	1
  1374     06B7  07AA               	addwf	___xxtofl@arg,f
  1375     06B8  3000               	movlw	0
  1376     06B9  1803               	skipnc
  1377     06BA  3001               	movlw	1
  1378     06BB  07AB               	addwf	___xxtofl@arg+1,f
  1379     06BC  3000               	movlw	0
  1380     06BD  1803               	skipnc
  1381     06BE  3001               	movlw	1
  1382     06BF  07AC               	addwf	___xxtofl@arg+2,f
  1383     06C0  3000               	movlw	0
  1384     06C1  1803               	skipnc
  1385     06C2  3001               	movlw	1
  1386     06C3  07AD               	addwf	___xxtofl@arg+3,f
  1387     06C4                     l2079:
  1388     06C4  3001               	movlw	1
  1389     06C5                     u3235:
  1390     06C5  1003               	clrc
  1391     06C6  0CAD               	rrf	___xxtofl@arg+3,f
  1392     06C7  0CAC               	rrf	___xxtofl@arg+2,f
  1393     06C8  0CAB               	rrf	___xxtofl@arg+1,f
  1394     06C9  0CAA               	rrf	___xxtofl@arg,f
  1395     06CA  3EFF               	addlw	-1
  1396     06CB  1D03               	skipz
  1397     06CC  2EC5               	goto	u3235
  1398     06CD                     l606:
  1399     06CD  30FF               	movlw	255
  1400     06CE  052D               	andwf	___xxtofl@arg+3,w
  1401     06CF  1D03               	btfss	3,2
  1402     06D0  2ED2               	goto	u3241
  1403     06D1  2ED3               	goto	u3240
  1404     06D2                     u3241:
  1405     06D2  2EB4               	goto	l2075
  1406     06D3                     u3240:
  1407     06D3  2EDF               	goto	l2083
  1408     06D4                     l2081:
  1409     06D4  3001               	movlw	1
  1410     06D5  02A9               	subwf	___xxtofl@exp,f
  1411     06D6  3001               	movlw	1
  1412     06D7  00A4               	movwf	??___xxtofl
  1413     06D8                     u3255:
  1414     06D8  1003               	clrc
  1415     06D9  0DAA               	rlf	___xxtofl@arg,f
  1416     06DA  0DAB               	rlf	___xxtofl@arg+1,f
  1417     06DB  0DAC               	rlf	___xxtofl@arg+2,f
  1418     06DC  0DAD               	rlf	___xxtofl@arg+3,f
  1419     06DD  0BA4               	decfsz	??___xxtofl,f
  1420     06DE  2ED8               	goto	u3255
  1421     06DF                     l2083:
  1422     06DF  1BAC               	btfsc	___xxtofl@arg+2,7
  1423     06E0  2EE2               	goto	u3261
  1424     06E1  2EE3               	goto	u3260
  1425     06E2                     u3261:
  1426     06E2  2EE9               	goto	l613
  1427     06E3                     u3260:
  1428     06E3                     l2085:
  1429     06E3  3002               	movlw	2
  1430     06E4  0229               	subwf	___xxtofl@exp,w
  1431     06E5  1803               	skipnc
  1432     06E6  2EE8               	goto	u3271
  1433     06E7  2EE9               	goto	u3270
  1434     06E8                     u3271:
  1435     06E8  2ED4               	goto	l2081
  1436     06E9                     u3270:
  1437     06E9                     l613:
  1438     06E9  1829               	btfsc	___xxtofl@exp,0
  1439     06EA  2EEC               	goto	u3281
  1440     06EB  2EED               	goto	u3280
  1441     06EC                     u3281:
  1442     06EC  2EF5               	goto	l614
  1443     06ED                     u3280:
  1444     06ED                     l2087:
  1445     06ED  30FF               	movlw	255
  1446     06EE  05AA               	andwf	___xxtofl@arg,f
  1447     06EF  30FF               	movlw	255
  1448     06F0  05AB               	andwf	___xxtofl@arg+1,f
  1449     06F1  307F               	movlw	127
  1450     06F2  05AC               	andwf	___xxtofl@arg+2,f
  1451     06F3  30FF               	movlw	255
  1452     06F4  05AD               	andwf	___xxtofl@arg+3,f
  1453     06F5                     l614:
  1454     06F5  1003               	clrc
  1455     06F6  0CA9               	rrf	___xxtofl@exp,f
  1456     06F7                     l2089:
  1457     06F7  0829               	movf	___xxtofl@exp,w
  1458     06F8  00A4               	movwf	??___xxtofl
  1459     06F9  01A5               	clrf	??___xxtofl+1
  1460     06FA  01A6               	clrf	??___xxtofl+2
  1461     06FB  01A7               	clrf	??___xxtofl+3
  1462     06FC  3018               	movlw	24
  1463     06FD                     u3295:
  1464     06FD  1003               	clrc
  1465     06FE  0DA4               	rlf	??___xxtofl,f
  1466     06FF  0DA5               	rlf	??___xxtofl+1,f
  1467     0700  0DA6               	rlf	??___xxtofl+2,f
  1468     0701  0DA7               	rlf	??___xxtofl+3,f
  1469     0702                     u3290:
  1470     0702  3EFF               	addlw	-1
  1471     0703  1D03               	skipz
  1472     0704  2EFD               	goto	u3295
  1473     0705  0824               	movf	??___xxtofl,w
  1474     0706  04AA               	iorwf	___xxtofl@arg,f
  1475     0707  0825               	movf	??___xxtofl+1,w
  1476     0708  04AB               	iorwf	___xxtofl@arg+1,f
  1477     0709  0826               	movf	??___xxtofl+2,w
  1478     070A  04AC               	iorwf	___xxtofl@arg+2,f
  1479     070B  0827               	movf	??___xxtofl+3,w
  1480     070C  04AD               	iorwf	___xxtofl@arg+3,f
  1481     070D                     l2091:
  1482     070D  0828               	movf	___xxtofl@sign,w
  1483     070E  1903               	btfsc	3,2
  1484     070F  2F11               	goto	u3301
  1485     0710  2F12               	goto	u3300
  1486     0711                     u3301:
  1487     0711  2F17               	goto	l2097
  1488     0712                     u3300:
  1489     0712                     l2093:
  1490     0712  1FA3               	btfss	___xxtofl@val+3,7
  1491     0713  2F15               	goto	u3311
  1492     0714  2F16               	goto	u3310
  1493     0715                     u3311:
  1494     0715  2F17               	goto	l2097
  1495     0716                     u3310:
  1496     0716                     l2095:
  1497     0716  17AD               	bsf	___xxtofl@arg+3,7
  1498     0717                     l2097:
  1499     0717  082D               	movf	___xxtofl@arg+3,w
  1500     0718  00A3               	movwf	?___xxtofl+3
  1501     0719  082C               	movf	___xxtofl@arg+2,w
  1502     071A  00A2               	movwf	?___xxtofl+2
  1503     071B  082B               	movf	___xxtofl@arg+1,w
  1504     071C  00A1               	movwf	?___xxtofl+1
  1505     071D  082A               	movf	___xxtofl@arg,w
  1506     071E  00A0               	movwf	?___xxtofl
  1507     071F                     l602:
  1508     071F  0008               	return
  1509     0720                     __end_of___xxtofl:
  1510                           
  1511                           	psect	text6
  1512     0F29                     __ptext6:	
  1513 ;; *************** function ___lwmod *****************
  1514 ;; Defined at:
  1515 ;;		line 5 in file "J:\Microchip\xc8\v2.50\pic\sources\c99\common\lwmod.c"
  1516 ;; Parameters:    Size  Location     Type
  1517 ;;  divisor         2    0[BANK0 ] unsigned int 
  1518 ;;  dividend        2    2[BANK0 ] unsigned int 
  1519 ;; Auto vars:     Size  Location     Type
  1520 ;;  counter         1    4[BANK0 ] unsigned char 
  1521 ;; Return value:  Size  Location     Type
  1522 ;;                  2    0[BANK0 ] unsigned int 
  1523 ;; Registers used:
  1524 ;;		wreg, status,2, status,0
  1525 ;; Tracked objects:
  1526 ;;		On entry : 0/0
  1527 ;;		On exit  : 0/0
  1528 ;;		Unchanged: 0/0
  1529 ;; Data sizes:     COMMON   BANK0   BANK1   BANK3   BANK2
  1530 ;;      Params:         0       4       0       0       0
  1531 ;;      Locals:         0       1       0       0       0
  1532 ;;      Temps:          0       0       0       0       0
  1533 ;;      Totals:         0       5       0       0       0
  1534 ;;Total ram usage:        5 bytes
  1535 ;; Hardware stack levels used: 1
  1536 ;; Hardware stack levels required when called: 1
  1537 ;; This function calls:
  1538 ;;		Nothing
  1539 ;; This function is called by:
  1540 ;;		_main
  1541 ;; This function uses a non-reentrant model
  1542 ;;
  1543                           
  1544     0F29                     ___lwmod:	
  1545                           ;psect for function ___lwmod
  1546                           
  1547     0F29                     l1895:	
  1548                           ;incstack = 0
  1549                           ; Regs used in ___lwmod: [wreg+status,2+status,0]
  1550                           
  1551     0F29  1283               	bcf	3,5	;RP0=0, select bank0
  1552     0F2A  1303               	bcf	3,6	;RP1=0, select bank0
  1553     0F2B  0820               	movf	___lwmod@divisor,w
  1554     0F2C  0421               	iorwf	___lwmod@divisor+1,w
  1555     0F2D  1903               	btfsc	3,2
  1556     0F2E  2F30               	goto	u2751
  1557     0F2F  2F31               	goto	u2750
  1558     0F30                     u2751:
  1559     0F30  2F5E               	goto	l1913
  1560     0F31                     u2750:
  1561     0F31                     l1897:
  1562     0F31  3001               	movlw	1
  1563     0F32  00A4               	movwf	___lwmod@counter
  1564     0F33  2F3D               	goto	l1903
  1565     0F34                     l1899:
  1566     0F34  3001               	movlw	1
  1567     0F35                     u2765:
  1568     0F35  1003               	clrc
  1569     0F36  0DA0               	rlf	___lwmod@divisor,f
  1570     0F37  0DA1               	rlf	___lwmod@divisor+1,f
  1571     0F38  3EFF               	addlw	-1
  1572     0F39  1D03               	skipz
  1573     0F3A  2F35               	goto	u2765
  1574     0F3B                     l1901:
  1575     0F3B  3001               	movlw	1
  1576     0F3C  07A4               	addwf	___lwmod@counter,f
  1577     0F3D                     l1903:
  1578     0F3D  1FA1               	btfss	___lwmod@divisor+1,7
  1579     0F3E  2F40               	goto	u2771
  1580     0F3F  2F41               	goto	u2770
  1581     0F40                     u2771:
  1582     0F40  2F34               	goto	l1899
  1583     0F41                     u2770:
  1584     0F41                     l1905:
  1585     0F41  0821               	movf	___lwmod@divisor+1,w
  1586     0F42  0223               	subwf	___lwmod@dividend+1,w
  1587     0F43  1D03               	skipz
  1588     0F44  2F47               	goto	u2785
  1589     0F45  0820               	movf	___lwmod@divisor,w
  1590     0F46  0222               	subwf	___lwmod@dividend,w
  1591     0F47                     u2785:
  1592     0F47  1C03               	skipc
  1593     0F48  2F4A               	goto	u2781
  1594     0F49  2F4B               	goto	u2780
  1595     0F4A                     u2781:
  1596     0F4A  2F51               	goto	l1909
  1597     0F4B                     u2780:
  1598     0F4B                     l1907:
  1599     0F4B  0820               	movf	___lwmod@divisor,w
  1600     0F4C  02A2               	subwf	___lwmod@dividend,f
  1601     0F4D  0821               	movf	___lwmod@divisor+1,w
  1602     0F4E  1C03               	skipc
  1603     0F4F  03A3               	decf	___lwmod@dividend+1,f
  1604     0F50  02A3               	subwf	___lwmod@dividend+1,f
  1605     0F51                     l1909:
  1606     0F51  3001               	movlw	1
  1607     0F52                     u2795:
  1608     0F52  1003               	clrc
  1609     0F53  0CA1               	rrf	___lwmod@divisor+1,f
  1610     0F54  0CA0               	rrf	___lwmod@divisor,f
  1611     0F55  3EFF               	addlw	-1
  1612     0F56  1D03               	skipz
  1613     0F57  2F52               	goto	u2795
  1614     0F58                     l1911:
  1615     0F58  3001               	movlw	1
  1616     0F59  02A4               	subwf	___lwmod@counter,f
  1617     0F5A  1D03               	btfss	3,2
  1618     0F5B  2F5D               	goto	u2801
  1619     0F5C  2F5E               	goto	u2800
  1620     0F5D                     u2801:
  1621     0F5D  2F41               	goto	l1905
  1622     0F5E                     u2800:
  1623     0F5E                     l1913:
  1624     0F5E  0823               	movf	___lwmod@dividend+1,w
  1625     0F5F  00A1               	movwf	?___lwmod+1
  1626     0F60  0822               	movf	___lwmod@dividend,w
  1627     0F61  00A0               	movwf	?___lwmod
  1628     0F62                     l449:
  1629     0F62  0008               	return
  1630     0F63                     __end_of___lwmod:
  1631                           
  1632                           	psect	text7
  1633     0F63                     __ptext7:	
  1634 ;; *************** function ___lwdiv *****************
  1635 ;; Defined at:
  1636 ;;		line 5 in file "J:\Microchip\xc8\v2.50\pic\sources\c99\common\lwdiv.c"
  1637 ;; Parameters:    Size  Location     Type
  1638 ;;  divisor         2    0[BANK0 ] unsigned int 
  1639 ;;  dividend        2    2[BANK0 ] unsigned int 
  1640 ;; Auto vars:     Size  Location     Type
  1641 ;;  quotient        2    5[BANK0 ] unsigned int 
  1642 ;;  counter         1    4[BANK0 ] unsigned char 
  1643 ;; Return value:  Size  Location     Type
  1644 ;;                  2    0[BANK0 ] unsigned int 
  1645 ;; Registers used:
  1646 ;;		wreg, status,2, status,0
  1647 ;; Tracked objects:
  1648 ;;		On entry : 0/0
  1649 ;;		On exit  : 0/0
  1650 ;;		Unchanged: 0/0
  1651 ;; Data sizes:     COMMON   BANK0   BANK1   BANK3   BANK2
  1652 ;;      Params:         0       4       0       0       0
  1653 ;;      Locals:         0       3       0       0       0
  1654 ;;      Temps:          0       0       0       0       0
  1655 ;;      Totals:         0       7       0       0       0
  1656 ;;Total ram usage:        7 bytes
  1657 ;; Hardware stack levels used: 1
  1658 ;; Hardware stack levels required when called: 1
  1659 ;; This function calls:
  1660 ;;		Nothing
  1661 ;; This function is called by:
  1662 ;;		_main
  1663 ;; This function uses a non-reentrant model
  1664 ;;
  1665                           
  1666     0F63                     ___lwdiv:	
  1667                           ;psect for function ___lwdiv
  1668                           
  1669     0F63                     l1869:	
  1670                           ;incstack = 0
  1671                           ; Regs used in ___lwdiv: [wreg+status,2+status,0]
  1672                           
  1673     0F63  1283               	bcf	3,5	;RP0=0, select bank0
  1674     0F64  1303               	bcf	3,6	;RP1=0, select bank0
  1675     0F65  01A5               	clrf	___lwdiv@quotient
  1676     0F66  01A6               	clrf	___lwdiv@quotient+1
  1677     0F67                     l1871:
  1678     0F67  0820               	movf	___lwdiv@divisor,w
  1679     0F68  0421               	iorwf	___lwdiv@divisor+1,w
  1680     0F69  1903               	btfsc	3,2
  1681     0F6A  2F6C               	goto	u2681
  1682     0F6B  2F6D               	goto	u2680
  1683     0F6C                     u2681:
  1684     0F6C  2FA2               	goto	l1891
  1685     0F6D                     u2680:
  1686     0F6D                     l1873:
  1687     0F6D  3001               	movlw	1
  1688     0F6E  00A4               	movwf	___lwdiv@counter
  1689     0F6F  2F79               	goto	l1879
  1690     0F70                     l1875:
  1691     0F70  3001               	movlw	1
  1692     0F71                     u2695:
  1693     0F71  1003               	clrc
  1694     0F72  0DA0               	rlf	___lwdiv@divisor,f
  1695     0F73  0DA1               	rlf	___lwdiv@divisor+1,f
  1696     0F74  3EFF               	addlw	-1
  1697     0F75  1D03               	skipz
  1698     0F76  2F71               	goto	u2695
  1699     0F77                     l1877:
  1700     0F77  3001               	movlw	1
  1701     0F78  07A4               	addwf	___lwdiv@counter,f
  1702     0F79                     l1879:
  1703     0F79  1FA1               	btfss	___lwdiv@divisor+1,7
  1704     0F7A  2F7C               	goto	u2701
  1705     0F7B  2F7D               	goto	u2700
  1706     0F7C                     u2701:
  1707     0F7C  2F70               	goto	l1875
  1708     0F7D                     u2700:
  1709     0F7D                     l1881:
  1710     0F7D  3001               	movlw	1
  1711     0F7E                     u2715:
  1712     0F7E  1003               	clrc
  1713     0F7F  0DA5               	rlf	___lwdiv@quotient,f
  1714     0F80  0DA6               	rlf	___lwdiv@quotient+1,f
  1715     0F81  3EFF               	addlw	-1
  1716     0F82  1D03               	skipz
  1717     0F83  2F7E               	goto	u2715
  1718     0F84  0821               	movf	___lwdiv@divisor+1,w
  1719     0F85  0223               	subwf	___lwdiv@dividend+1,w
  1720     0F86  1D03               	skipz
  1721     0F87  2F8A               	goto	u2725
  1722     0F88  0820               	movf	___lwdiv@divisor,w
  1723     0F89  0222               	subwf	___lwdiv@dividend,w
  1724     0F8A                     u2725:
  1725     0F8A  1C03               	skipc
  1726     0F8B  2F8D               	goto	u2721
  1727     0F8C  2F8E               	goto	u2720
  1728     0F8D                     u2721:
  1729     0F8D  2F95               	goto	l1887
  1730     0F8E                     u2720:
  1731     0F8E                     l1883:
  1732     0F8E  0820               	movf	___lwdiv@divisor,w
  1733     0F8F  02A2               	subwf	___lwdiv@dividend,f
  1734     0F90  0821               	movf	___lwdiv@divisor+1,w
  1735     0F91  1C03               	skipc
  1736     0F92  03A3               	decf	___lwdiv@dividend+1,f
  1737     0F93  02A3               	subwf	___lwdiv@dividend+1,f
  1738     0F94                     l1885:
  1739     0F94  1425               	bsf	___lwdiv@quotient,0
  1740     0F95                     l1887:
  1741     0F95  3001               	movlw	1
  1742     0F96                     u2735:
  1743     0F96  1003               	clrc
  1744     0F97  0CA1               	rrf	___lwdiv@divisor+1,f
  1745     0F98  0CA0               	rrf	___lwdiv@divisor,f
  1746     0F99  3EFF               	addlw	-1
  1747     0F9A  1D03               	skipz
  1748     0F9B  2F96               	goto	u2735
  1749     0F9C                     l1889:
  1750     0F9C  3001               	movlw	1
  1751     0F9D  02A4               	subwf	___lwdiv@counter,f
  1752     0F9E  1D03               	btfss	3,2
  1753     0F9F  2FA1               	goto	u2741
  1754     0FA0  2FA2               	goto	u2740
  1755     0FA1                     u2741:
  1756     0FA1  2F7D               	goto	l1881
  1757     0FA2                     u2740:
  1758     0FA2                     l1891:
  1759     0FA2  0826               	movf	___lwdiv@quotient+1,w
  1760     0FA3  00A1               	movwf	?___lwdiv+1
  1761     0FA4  0825               	movf	___lwdiv@quotient,w
  1762     0FA5  00A0               	movwf	?___lwdiv
  1763     0FA6                     l439:
  1764     0FA6  0008               	return
  1765     0FA7                     __end_of___lwdiv:
  1766                           
  1767                           	psect	text8
  1768     0720                     __ptext8:	
  1769 ;; *************** function ___fltol *****************
  1770 ;; Defined at:
  1771 ;;		line 43 in file "J:\Microchip\xc8\v2.50\pic\sources\c99\common\fltol.c"
  1772 ;; Parameters:    Size  Location     Type
  1773 ;;  f1              4    0[BANK0 ] unsigned int 
  1774 ;; Auto vars:     Size  Location     Type
  1775 ;;  exp1            1    9[BANK0 ] unsigned char 
  1776 ;;  sign1           1    8[BANK0 ] unsigned char 
  1777 ;; Return value:  Size  Location     Type
  1778 ;;                  4    0[BANK0 ] long 
  1779 ;; Registers used:
  1780 ;;		wreg, status,2, status,0
  1781 ;; Tracked objects:
  1782 ;;		On entry : 0/0
  1783 ;;		On exit  : 0/0
  1784 ;;		Unchanged: 0/0
  1785 ;; Data sizes:     COMMON   BANK0   BANK1   BANK3   BANK2
  1786 ;;      Params:         0       4       0       0       0
  1787 ;;      Locals:         0       2       0       0       0
  1788 ;;      Temps:          0       4       0       0       0
  1789 ;;      Totals:         0      10       0       0       0
  1790 ;;Total ram usage:       10 bytes
  1791 ;; Hardware stack levels used: 1
  1792 ;; Hardware stack levels required when called: 1
  1793 ;; This function calls:
  1794 ;;		Nothing
  1795 ;; This function is called by:
  1796 ;;		_main
  1797 ;; This function uses a non-reentrant model
  1798 ;;
  1799                           
  1800     0720                     ___fltol:	
  1801                           ;psect for function ___fltol
  1802                           
  1803     0720                     l1833:	
  1804                           ;incstack = 0
  1805                           ; Regs used in ___fltol: [wreg+status,2+status,0]
  1806                           
  1807     0720  1003               	clrc
  1808     0721  1283               	bcf	3,5	;RP0=0, select bank0
  1809     0722  1303               	bcf	3,6	;RP1=0, select bank0
  1810     0723  0D22               	rlf	___fltol@f1+2,w
  1811     0724  0D23               	rlf	___fltol@f1+3,w
  1812     0725  00A9               	movwf	___fltol@exp1
  1813     0726  0829               	movf	___fltol@exp1,w
  1814     0727  1D03               	btfss	3,2
  1815     0728  2F2A               	goto	u2581
  1816     0729  2F2B               	goto	u2580
  1817     072A                     u2581:
  1818     072A  2F34               	goto	l1839
  1819     072B                     u2580:
  1820     072B                     l1835:
  1821     072B  3000               	movlw	0
  1822     072C  00A3               	movwf	?___fltol+3
  1823     072D  3000               	movlw	0
  1824     072E  00A2               	movwf	?___fltol+2
  1825     072F  3000               	movlw	0
  1826     0730  00A1               	movwf	?___fltol+1
  1827     0731  3000               	movlw	0
  1828     0732  00A0               	movwf	?___fltol
  1829     0733  2F95               	goto	l353
  1830     0734                     l1839:
  1831     0734  0820               	movf	___fltol@f1,w
  1832     0735  00A4               	movwf	??___fltol
  1833     0736  0821               	movf	___fltol@f1+1,w
  1834     0737  00A5               	movwf	??___fltol+1
  1835     0738  0822               	movf	___fltol@f1+2,w
  1836     0739  00A6               	movwf	??___fltol+2
  1837     073A  0823               	movf	___fltol@f1+3,w
  1838     073B  00A7               	movwf	??___fltol+3
  1839     073C  301F               	movlw	31
  1840     073D                     u2595:
  1841     073D  1003               	clrc
  1842     073E  0CA7               	rrf	??___fltol+3,f
  1843     073F  0CA6               	rrf	??___fltol+2,f
  1844     0740  0CA5               	rrf	??___fltol+1,f
  1845     0741  0CA4               	rrf	??___fltol,f
  1846     0742                     u2590:
  1847     0742  3EFF               	addlw	-1
  1848     0743  1D03               	skipz
  1849     0744  2F3D               	goto	u2595
  1850     0745  0824               	movf	??___fltol,w
  1851     0746  00A8               	movwf	___fltol@sign1
  1852     0747                     l1841:
  1853     0747  17A2               	bsf	___fltol@f1+2,7
  1854     0748                     l1843:
  1855     0748  30FF               	movlw	255
  1856     0749  05A0               	andwf	___fltol@f1,f
  1857     074A  30FF               	movlw	255
  1858     074B  05A1               	andwf	___fltol@f1+1,f
  1859     074C  30FF               	movlw	255
  1860     074D  05A2               	andwf	___fltol@f1+2,f
  1861     074E  3000               	movlw	0
  1862     074F  05A3               	andwf	___fltol@f1+3,f
  1863     0750                     l1845:
  1864     0750  3096               	movlw	150
  1865     0751  02A9               	subwf	___fltol@exp1,f
  1866     0752                     l1847:
  1867     0752  1FA9               	btfss	___fltol@exp1,7
  1868     0753  2F55               	goto	u2601
  1869     0754  2F56               	goto	u2600
  1870     0755                     u2601:
  1871     0755  2F6E               	goto	l1857
  1872     0756                     u2600:
  1873     0756                     l1849:
  1874     0756  0829               	movf	___fltol@exp1,w
  1875     0757  3A80               	xorlw	128
  1876     0758  3E97               	addlw	151
  1877     0759  1803               	skipnc
  1878     075A  2F5C               	goto	u2611
  1879     075B  2F5D               	goto	u2610
  1880     075C                     u2611:
  1881     075C  2F5E               	goto	l1855
  1882     075D                     u2610:
  1883     075D  2F2B               	goto	l1835
  1884     075E                     l1855:
  1885     075E  3001               	movlw	1
  1886     075F                     u2625:
  1887     075F  1003               	clrc
  1888     0760  0CA3               	rrf	___fltol@f1+3,f
  1889     0761  0CA2               	rrf	___fltol@f1+2,f
  1890     0762  0CA1               	rrf	___fltol@f1+1,f
  1891     0763  0CA0               	rrf	___fltol@f1,f
  1892     0764  3EFF               	addlw	-1
  1893     0765  1D03               	skipz
  1894     0766  2F5F               	goto	u2625
  1895     0767  3001               	movlw	1
  1896     0768  07A9               	addwf	___fltol@exp1,f
  1897     0769  1D03               	btfss	3,2
  1898     076A  2F6C               	goto	u2631
  1899     076B  2F6D               	goto	u2630
  1900     076C                     u2631:
  1901     076C  2F5E               	goto	l1855
  1902     076D                     u2630:
  1903     076D  2F85               	goto	l1865
  1904     076E                     l1857:
  1905     076E  3020               	movlw	32
  1906     076F  0229               	subwf	___fltol@exp1,w
  1907     0770  1C03               	skipc
  1908     0771  2F73               	goto	u2641
  1909     0772  2F74               	goto	u2640
  1910     0773                     u2641:
  1911     0773  2F80               	goto	l360
  1912     0774                     u2640:
  1913     0774  2F2B               	goto	l1835
  1914     0775                     l1863:
  1915     0775  3001               	movlw	1
  1916     0776  00A4               	movwf	??___fltol
  1917     0777                     u2655:
  1918     0777  1003               	clrc
  1919     0778  0DA0               	rlf	___fltol@f1,f
  1920     0779  0DA1               	rlf	___fltol@f1+1,f
  1921     077A  0DA2               	rlf	___fltol@f1+2,f
  1922     077B  0DA3               	rlf	___fltol@f1+3,f
  1923     077C  0BA4               	decfsz	??___fltol,f
  1924     077D  2F77               	goto	u2655
  1925     077E  3001               	movlw	1
  1926     077F  02A9               	subwf	___fltol@exp1,f
  1927     0780                     l360:
  1928     0780  0829               	movf	___fltol@exp1,w
  1929     0781  1D03               	btfss	3,2
  1930     0782  2F84               	goto	u2661
  1931     0783  2F85               	goto	u2660
  1932     0784                     u2661:
  1933     0784  2F75               	goto	l1863
  1934     0785                     u2660:
  1935     0785                     l1865:
  1936     0785  0828               	movf	___fltol@sign1,w
  1937     0786  1903               	btfsc	3,2
  1938     0787  2F89               	goto	u2671
  1939     0788  2F8A               	goto	u2670
  1940     0789                     u2671:
  1941     0789  2F95               	goto	l363
  1942     078A                     u2670:
  1943     078A                     l1867:
  1944     078A  09A0               	comf	___fltol@f1,f
  1945     078B  09A1               	comf	___fltol@f1+1,f
  1946     078C  09A2               	comf	___fltol@f1+2,f
  1947     078D  09A3               	comf	___fltol@f1+3,f
  1948     078E  0AA0               	incf	___fltol@f1,f
  1949     078F  1903               	skipnz
  1950     0790  0AA1               	incf	___fltol@f1+1,f
  1951     0791  1903               	skipnz
  1952     0792  0AA2               	incf	___fltol@f1+2,f
  1953     0793  1903               	skipnz
  1954     0794  0AA3               	incf	___fltol@f1+3,f
  1955     0795                     l363:
  1956     0795                     l353:
  1957     0795  0008               	return
  1958     0796                     __end_of___fltol:
  1959                           
  1960                           	psect	text9
  1961     0022                     __ptext9:	
  1962 ;; *************** function ___flmul *****************
  1963 ;; Defined at:
  1964 ;;		line 8 in file "J:\Microchip\xc8\v2.50\pic\sources\c99\common\sprcmul.c"
  1965 ;; Parameters:    Size  Location     Type
  1966 ;;  b               4    9[BANK0 ] long 
  1967 ;;  a               4   13[BANK0 ] long 
  1968 ;; Auto vars:     Size  Location     Type
  1969 ;;  prod            4   29[BANK0 ] struct .
  1970 ;;  grs             4   24[BANK0 ] unsigned long 
  1971 ;;  temp            2   33[BANK0 ] struct .
  1972 ;;  bexp            1   28[BANK0 ] unsigned char 
  1973 ;;  aexp            1   23[BANK0 ] unsigned char 
  1974 ;;  sign            1   22[BANK0 ] unsigned char 
  1975 ;; Return value:  Size  Location     Type
  1976 ;;                  4    9[BANK0 ] unsigned char 
  1977 ;; Registers used:
  1978 ;;		wreg, status,2, status,0, btemp+1, pclath, cstack
  1979 ;; Tracked objects:
  1980 ;;		On entry : 0/0
  1981 ;;		On exit  : 0/0
  1982 ;;		Unchanged: 0/0
  1983 ;; Data sizes:     COMMON   BANK0   BANK1   BANK3   BANK2
  1984 ;;      Params:         0       8       0       0       0
  1985 ;;      Locals:         0      13       0       0       0
  1986 ;;      Temps:          0       5       0       0       0
  1987 ;;      Totals:         0      26       0       0       0
  1988 ;;Total ram usage:       26 bytes
  1989 ;; Hardware stack levels used: 1
  1990 ;; Hardware stack levels required when called: 2
  1991 ;; This function calls:
  1992 ;;		__Umul8_16
  1993 ;; This function is called by:
  1994 ;;		_main
  1995 ;; This function uses a non-reentrant model
  1996 ;;
  1997                           
  1998     0022                     ___flmul:	
  1999                           ;psect for function ___flmul
  2000                           
  2001     0022                     l1917:	
  2002                           ;incstack = 0
  2003                           ; Regs used in ___flmul: [wreg+status,2+status,0+btemp+1+pclath+cstack]
  2004                           
  2005     0022  1283               	bcf	3,5	;RP0=0, select bank0
  2006     0023  1303               	bcf	3,6	;RP1=0, select bank0
  2007     0024  082C               	movf	___flmul@b+3,w
  2008     0025  00B6               	movwf	___flmul@sign
  2009     0026                     l1919:
  2010     0026  3080               	movlw	128
  2011     0027  05B6               	andwf	___flmul@sign,f
  2012     0028                     l1921:
  2013     0028  082C               	movf	___flmul@b+3,w
  2014     0029  00B1               	movwf	??___flmul
  2015     002A  0731               	addwf	??___flmul,w
  2016     002B  00BC               	movwf	___flmul@bexp
  2017     002C                     l1923:
  2018     002C  1FAB               	btfss	___flmul@b+2,7
  2019     002D  282F               	goto	u2811
  2020     002E  2830               	goto	u2810
  2021     002F                     u2811:
  2022     002F  2831               	goto	l1927
  2023     0030                     u2810:
  2024     0030                     l1925:
  2025     0030  143C               	bsf	___flmul@bexp,0
  2026     0031                     l1927:
  2027     0031  083C               	movf	___flmul@bexp,w
  2028     0032  1903               	btfsc	3,2
  2029     0033  2835               	goto	u2821
  2030     0034  2836               	goto	u2820
  2031     0035                     u2821:
  2032     0035  2845               	goto	l1935
  2033     0036                     u2820:
  2034     0036                     l1929:
  2035     0036  0A3C               	incf	___flmul@bexp,w
  2036     0037  1D03               	btfss	3,2
  2037     0038  283A               	goto	u2831
  2038     0039  283B               	goto	u2830
  2039     003A                     u2831:
  2040     003A  2843               	goto	l1933
  2041     003B                     u2830:
  2042     003B                     l1931:
  2043     003B  3000               	movlw	0
  2044     003C  00AC               	movwf	___flmul@b+3
  2045     003D  3000               	movlw	0
  2046     003E  00AB               	movwf	___flmul@b+2
  2047     003F  3000               	movlw	0
  2048     0040  00AA               	movwf	___flmul@b+1
  2049     0041  3000               	movlw	0
  2050     0042  00A9               	movwf	___flmul@b
  2051     0043                     l1933:
  2052     0043  17AB               	bsf	___flmul@b+2,7
  2053     0044  284D               	goto	l1937
  2054     0045                     l1935:
  2055     0045  3000               	movlw	0
  2056     0046  00AC               	movwf	___flmul@b+3
  2057     0047  3000               	movlw	0
  2058     0048  00AB               	movwf	___flmul@b+2
  2059     0049  3000               	movlw	0
  2060     004A  00AA               	movwf	___flmul@b+1
  2061     004B  3000               	movlw	0
  2062     004C  00A9               	movwf	___flmul@b
  2063     004D                     l1937:
  2064     004D  0830               	movf	___flmul@a+3,w
  2065     004E  3980               	andlw	128
  2066     004F  06B6               	xorwf	___flmul@sign,f
  2067     0050                     l1939:
  2068     0050  0830               	movf	___flmul@a+3,w
  2069     0051  00B1               	movwf	??___flmul
  2070     0052  0731               	addwf	??___flmul,w
  2071     0053  00B7               	movwf	___flmul@aexp
  2072     0054                     l1941:
  2073     0054  1FAF               	btfss	___flmul@a+2,7
  2074     0055  2857               	goto	u2841
  2075     0056  2858               	goto	u2840
  2076     0057                     u2841:
  2077     0057  2859               	goto	l1945
  2078     0058                     u2840:
  2079     0058                     l1943:
  2080     0058  1437               	bsf	___flmul@aexp,0
  2081     0059                     l1945:
  2082     0059  0837               	movf	___flmul@aexp,w
  2083     005A  1903               	btfsc	3,2
  2084     005B  285D               	goto	u2851
  2085     005C  285E               	goto	u2850
  2086     005D                     u2851:
  2087     005D  286D               	goto	l1953
  2088     005E                     u2850:
  2089     005E                     l1947:
  2090     005E  0A37               	incf	___flmul@aexp,w
  2091     005F  1D03               	btfss	3,2
  2092     0060  2862               	goto	u2861
  2093     0061  2863               	goto	u2860
  2094     0062                     u2861:
  2095     0062  286B               	goto	l1951
  2096     0063                     u2860:
  2097     0063                     l1949:
  2098     0063  3000               	movlw	0
  2099     0064  00B0               	movwf	___flmul@a+3
  2100     0065  3000               	movlw	0
  2101     0066  00AF               	movwf	___flmul@a+2
  2102     0067  3000               	movlw	0
  2103     0068  00AE               	movwf	___flmul@a+1
  2104     0069  3000               	movlw	0
  2105     006A  00AD               	movwf	___flmul@a
  2106     006B                     l1951:
  2107     006B  17AF               	bsf	___flmul@a+2,7
  2108     006C  2875               	goto	l1955
  2109     006D                     l1953:
  2110     006D  3000               	movlw	0
  2111     006E  00B0               	movwf	___flmul@a+3
  2112     006F  3000               	movlw	0
  2113     0070  00AF               	movwf	___flmul@a+2
  2114     0071  3000               	movlw	0
  2115     0072  00AE               	movwf	___flmul@a+1
  2116     0073  3000               	movlw	0
  2117     0074  00AD               	movwf	___flmul@a
  2118     0075                     l1955:
  2119     0075  0837               	movf	___flmul@aexp,w
  2120     0076  1903               	btfsc	3,2
  2121     0077  2879               	goto	u2871
  2122     0078  287A               	goto	u2870
  2123     0079                     u2871:
  2124     0079  287F               	goto	l1959
  2125     007A                     u2870:
  2126     007A                     l1957:
  2127     007A  083C               	movf	___flmul@bexp,w
  2128     007B  1D03               	btfss	3,2
  2129     007C  287E               	goto	u2881
  2130     007D  287F               	goto	u2880
  2131     007E                     u2881:
  2132     007E  2888               	goto	l1963
  2133     007F                     u2880:
  2134     007F                     l1959:
  2135     007F  3000               	movlw	0
  2136     0080  00AC               	movwf	?___flmul+3
  2137     0081  3000               	movlw	0
  2138     0082  00AB               	movwf	?___flmul+2
  2139     0083  3000               	movlw	0
  2140     0084  00AA               	movwf	?___flmul+1
  2141     0085  3000               	movlw	0
  2142     0086  00A9               	movwf	?___flmul
  2143     0087  2B63               	goto	l556
  2144     0088                     l1963:
  2145     0088  0829               	movf	___flmul@b,w
  2146     0089  00A0               	movwf	__Umul8_16@multiplicand
  2147     008A  082F               	movf	___flmul@a+2,w
  2148     008B  120A  158A  2700  120A  118A  	fcall	__Umul8_16
  2149     0090  1283               	bcf	3,5	;RP0=0, select bank0
  2150     0091  1303               	bcf	3,6	;RP1=0, select bank0
  2151     0092  0821               	movf	?__Umul8_16+1,w
  2152     0093  00C2               	movwf	___flmul@temp+1
  2153     0094  0820               	movf	?__Umul8_16,w
  2154     0095  00C1               	movwf	___flmul@temp
  2155     0096                     l1965:
  2156     0096  0841               	movf	___flmul@temp,w
  2157     0097  00B1               	movwf	??___flmul
  2158     0098  01B2               	clrf	??___flmul+1
  2159     0099  01B3               	clrf	??___flmul+2
  2160     009A  01B4               	clrf	??___flmul+3
  2161     009B  0834               	movf	??___flmul+3,w
  2162     009C  00BB               	movwf	___flmul@grs+3
  2163     009D  0833               	movf	??___flmul+2,w
  2164     009E  00BA               	movwf	___flmul@grs+2
  2165     009F  0832               	movf	??___flmul+1,w
  2166     00A0  00B9               	movwf	___flmul@grs+1
  2167     00A1  0831               	movf	??___flmul,w
  2168     00A2  00B8               	movwf	___flmul@grs
  2169     00A3                     l1967:
  2170     00A3  0842               	movf	___flmul@temp+1,w
  2171     00A4  00B1               	movwf	??___flmul
  2172     00A5  01B2               	clrf	??___flmul+1
  2173     00A6  01B3               	clrf	??___flmul+2
  2174     00A7  01B4               	clrf	??___flmul+3
  2175     00A8  0834               	movf	??___flmul+3,w
  2176     00A9  00C0               	movwf	___flmul@prod+3
  2177     00AA  0833               	movf	??___flmul+2,w
  2178     00AB  00BF               	movwf	___flmul@prod+2
  2179     00AC  0832               	movf	??___flmul+1,w
  2180     00AD  00BE               	movwf	___flmul@prod+1
  2181     00AE  0831               	movf	??___flmul,w
  2182     00AF  00BD               	movwf	___flmul@prod
  2183     00B0  082A               	movf	___flmul@b+1,w
  2184     00B1  00A0               	movwf	__Umul8_16@multiplicand
  2185     00B2  082E               	movf	___flmul@a+1,w
  2186     00B3  120A  158A  2700  120A  118A  	fcall	__Umul8_16
  2187     00B8  1283               	bcf	3,5	;RP0=0, select bank0
  2188     00B9  1303               	bcf	3,6	;RP1=0, select bank0
  2189     00BA  0821               	movf	?__Umul8_16+1,w
  2190     00BB  00C2               	movwf	___flmul@temp+1
  2191     00BC  0820               	movf	?__Umul8_16,w
  2192     00BD  00C1               	movwf	___flmul@temp
  2193     00BE                     l1969:
  2194     00BE  0841               	movf	___flmul@temp,w
  2195     00BF  00B1               	movwf	??___flmul
  2196     00C0  01B2               	clrf	??___flmul+1
  2197     00C1  01B3               	clrf	??___flmul+2
  2198     00C2  01B4               	clrf	??___flmul+3
  2199     00C3  0831               	movf	??___flmul,w
  2200     00C4  07B8               	addwf	___flmul@grs,f
  2201     00C5  0832               	movf	??___flmul+1,w
  2202     00C6  1103               	clrz
  2203     00C7  1803               	skipnc
  2204     00C8  3E01               	addlw	1
  2205     00C9  1903               	skipnz
  2206     00CA  28CC               	goto	u2891
  2207     00CB  07B9               	addwf	___flmul@grs+1,f
  2208     00CC                     u2891:
  2209     00CC  0833               	movf	??___flmul+2,w
  2210     00CD  1103               	clrz
  2211     00CE  1803               	skipnc
  2212     00CF  3E01               	addlw	1
  2213     00D0  1903               	skipnz
  2214     00D1  28D3               	goto	u2892
  2215     00D2  07BA               	addwf	___flmul@grs+2,f
  2216     00D3                     u2892:
  2217     00D3  0834               	movf	??___flmul+3,w
  2218     00D4  1103               	clrz
  2219     00D5  1803               	skipnc
  2220     00D6  3E01               	addlw	1
  2221     00D7  1903               	skipnz
  2222     00D8  28DA               	goto	u2893
  2223     00D9  07BB               	addwf	___flmul@grs+3,f
  2224     00DA                     u2893:
  2225     00DA                     l1971:
  2226     00DA  0842               	movf	___flmul@temp+1,w
  2227     00DB  00B1               	movwf	??___flmul
  2228     00DC  01B2               	clrf	??___flmul+1
  2229     00DD  01B3               	clrf	??___flmul+2
  2230     00DE  01B4               	clrf	??___flmul+3
  2231     00DF  0831               	movf	??___flmul,w
  2232     00E0  07BD               	addwf	___flmul@prod,f
  2233     00E1  0832               	movf	??___flmul+1,w
  2234     00E2  1103               	clrz
  2235     00E3  1803               	skipnc
  2236     00E4  3E01               	addlw	1
  2237     00E5  1903               	skipnz
  2238     00E6  28E8               	goto	u2901
  2239     00E7  07BE               	addwf	___flmul@prod+1,f
  2240     00E8                     u2901:
  2241     00E8  0833               	movf	??___flmul+2,w
  2242     00E9  1103               	clrz
  2243     00EA  1803               	skipnc
  2244     00EB  3E01               	addlw	1
  2245     00EC  1903               	skipnz
  2246     00ED  28EF               	goto	u2902
  2247     00EE  07BF               	addwf	___flmul@prod+2,f
  2248     00EF                     u2902:
  2249     00EF  0834               	movf	??___flmul+3,w
  2250     00F0  1103               	clrz
  2251     00F1  1803               	skipnc
  2252     00F2  3E01               	addlw	1
  2253     00F3  1903               	skipnz
  2254     00F4  28F6               	goto	u2903
  2255     00F5  07C0               	addwf	___flmul@prod+3,f
  2256     00F6                     u2903:
  2257     00F6  082B               	movf	___flmul@b+2,w
  2258     00F7  00A0               	movwf	__Umul8_16@multiplicand
  2259     00F8  082D               	movf	___flmul@a,w
  2260     00F9  120A  158A  2700  120A  118A  	fcall	__Umul8_16
  2261     00FE  1283               	bcf	3,5	;RP0=0, select bank0
  2262     00FF  1303               	bcf	3,6	;RP1=0, select bank0
  2263     0100  0821               	movf	?__Umul8_16+1,w
  2264     0101  00C2               	movwf	___flmul@temp+1
  2265     0102  0820               	movf	?__Umul8_16,w
  2266     0103  00C1               	movwf	___flmul@temp
  2267     0104                     l1973:
  2268     0104  0841               	movf	___flmul@temp,w
  2269     0105  00B1               	movwf	??___flmul
  2270     0106  01B2               	clrf	??___flmul+1
  2271     0107  01B3               	clrf	??___flmul+2
  2272     0108  01B4               	clrf	??___flmul+3
  2273     0109  0831               	movf	??___flmul,w
  2274     010A  07B8               	addwf	___flmul@grs,f
  2275     010B  0832               	movf	??___flmul+1,w
  2276     010C  1103               	clrz
  2277     010D  1803               	skipnc
  2278     010E  3E01               	addlw	1
  2279     010F  1903               	skipnz
  2280     0110  2912               	goto	u2911
  2281     0111  07B9               	addwf	___flmul@grs+1,f
  2282     0112                     u2911:
  2283     0112  0833               	movf	??___flmul+2,w
  2284     0113  1103               	clrz
  2285     0114  1803               	skipnc
  2286     0115  3E01               	addlw	1
  2287     0116  1903               	skipnz
  2288     0117  2919               	goto	u2912
  2289     0118  07BA               	addwf	___flmul@grs+2,f
  2290     0119                     u2912:
  2291     0119  0834               	movf	??___flmul+3,w
  2292     011A  1103               	clrz
  2293     011B  1803               	skipnc
  2294     011C  3E01               	addlw	1
  2295     011D  1903               	skipnz
  2296     011E  2920               	goto	u2913
  2297     011F  07BB               	addwf	___flmul@grs+3,f
  2298     0120                     u2913:
  2299     0120                     l1975:
  2300     0120  0842               	movf	___flmul@temp+1,w
  2301     0121  00B1               	movwf	??___flmul
  2302     0122  01B2               	clrf	??___flmul+1
  2303     0123  01B3               	clrf	??___flmul+2
  2304     0124  01B4               	clrf	??___flmul+3
  2305     0125  0831               	movf	??___flmul,w
  2306     0126  07BD               	addwf	___flmul@prod,f
  2307     0127  0832               	movf	??___flmul+1,w
  2308     0128  1103               	clrz
  2309     0129  1803               	skipnc
  2310     012A  3E01               	addlw	1
  2311     012B  1903               	skipnz
  2312     012C  292E               	goto	u2921
  2313     012D  07BE               	addwf	___flmul@prod+1,f
  2314     012E                     u2921:
  2315     012E  0833               	movf	??___flmul+2,w
  2316     012F  1103               	clrz
  2317     0130  1803               	skipnc
  2318     0131  3E01               	addlw	1
  2319     0132  1903               	skipnz
  2320     0133  2935               	goto	u2922
  2321     0134  07BF               	addwf	___flmul@prod+2,f
  2322     0135                     u2922:
  2323     0135  0834               	movf	??___flmul+3,w
  2324     0136  1103               	clrz
  2325     0137  1803               	skipnc
  2326     0138  3E01               	addlw	1
  2327     0139  1903               	skipnz
  2328     013A  293C               	goto	u2923
  2329     013B  07C0               	addwf	___flmul@prod+3,f
  2330     013C                     u2923:
  2331     013C                     l1977:
  2332     013C  3008               	movlw	8
  2333     013D  00B1               	movwf	??___flmul
  2334     013E                     u2935:
  2335     013E  1003               	clrc
  2336     013F  0DB8               	rlf	___flmul@grs,f
  2337     0140  0DB9               	rlf	___flmul@grs+1,f
  2338     0141  0DBA               	rlf	___flmul@grs+2,f
  2339     0142  0DBB               	rlf	___flmul@grs+3,f
  2340     0143  0BB1               	decfsz	??___flmul,f
  2341     0144  293E               	goto	u2935
  2342     0145                     l1979:
  2343     0145  082A               	movf	___flmul@b+1,w
  2344     0146  00A0               	movwf	__Umul8_16@multiplicand
  2345     0147  082D               	movf	___flmul@a,w
  2346     0148  120A  158A  2700  120A  118A  	fcall	__Umul8_16
  2347     014D  1283               	bcf	3,5	;RP0=0, select bank0
  2348     014E  1303               	bcf	3,6	;RP1=0, select bank0
  2349     014F  0821               	movf	?__Umul8_16+1,w
  2350     0150  00C2               	movwf	___flmul@temp+1
  2351     0151  0820               	movf	?__Umul8_16,w
  2352     0152  00C1               	movwf	___flmul@temp
  2353     0153                     l1981:
  2354     0153  0841               	movf	___flmul@temp,w
  2355     0154  00B1               	movwf	??___flmul
  2356     0155  0842               	movf	___flmul@temp+1,w
  2357     0156  00B2               	movwf	??___flmul+1
  2358     0157  01B3               	clrf	??___flmul+2
  2359     0158  01B4               	clrf	??___flmul+3
  2360     0159  0831               	movf	??___flmul,w
  2361     015A  07B8               	addwf	___flmul@grs,f
  2362     015B  0832               	movf	??___flmul+1,w
  2363     015C  1103               	clrz
  2364     015D  1803               	skipnc
  2365     015E  3E01               	addlw	1
  2366     015F  1903               	skipnz
  2367     0160  2962               	goto	u2941
  2368     0161  07B9               	addwf	___flmul@grs+1,f
  2369     0162                     u2941:
  2370     0162  0833               	movf	??___flmul+2,w
  2371     0163  1103               	clrz
  2372     0164  1803               	skipnc
  2373     0165  3E01               	addlw	1
  2374     0166  1903               	skipnz
  2375     0167  2969               	goto	u2942
  2376     0168  07BA               	addwf	___flmul@grs+2,f
  2377     0169                     u2942:
  2378     0169  0834               	movf	??___flmul+3,w
  2379     016A  1103               	clrz
  2380     016B  1803               	skipnc
  2381     016C  3E01               	addlw	1
  2382     016D  1903               	skipnz
  2383     016E  2970               	goto	u2943
  2384     016F  07BB               	addwf	___flmul@grs+3,f
  2385     0170                     u2943:
  2386     0170                     l1983:
  2387     0170  0829               	movf	___flmul@b,w
  2388     0171  00A0               	movwf	__Umul8_16@multiplicand
  2389     0172  082E               	movf	___flmul@a+1,w
  2390     0173  120A  158A  2700  120A  118A  	fcall	__Umul8_16
  2391     0178  1283               	bcf	3,5	;RP0=0, select bank0
  2392     0179  1303               	bcf	3,6	;RP1=0, select bank0
  2393     017A  0821               	movf	?__Umul8_16+1,w
  2394     017B  00C2               	movwf	___flmul@temp+1
  2395     017C  0820               	movf	?__Umul8_16,w
  2396     017D  00C1               	movwf	___flmul@temp
  2397     017E                     l1985:
  2398     017E  0841               	movf	___flmul@temp,w
  2399     017F  00B1               	movwf	??___flmul
  2400     0180  0842               	movf	___flmul@temp+1,w
  2401     0181  00B2               	movwf	??___flmul+1
  2402     0182  01B3               	clrf	??___flmul+2
  2403     0183  01B4               	clrf	??___flmul+3
  2404     0184  0831               	movf	??___flmul,w
  2405     0185  07B8               	addwf	___flmul@grs,f
  2406     0186  0832               	movf	??___flmul+1,w
  2407     0187  1103               	clrz
  2408     0188  1803               	skipnc
  2409     0189  3E01               	addlw	1
  2410     018A  1903               	skipnz
  2411     018B  298D               	goto	u2951
  2412     018C  07B9               	addwf	___flmul@grs+1,f
  2413     018D                     u2951:
  2414     018D  0833               	movf	??___flmul+2,w
  2415     018E  1103               	clrz
  2416     018F  1803               	skipnc
  2417     0190  3E01               	addlw	1
  2418     0191  1903               	skipnz
  2419     0192  2994               	goto	u2952
  2420     0193  07BA               	addwf	___flmul@grs+2,f
  2421     0194                     u2952:
  2422     0194  0834               	movf	??___flmul+3,w
  2423     0195  1103               	clrz
  2424     0196  1803               	skipnc
  2425     0197  3E01               	addlw	1
  2426     0198  1903               	skipnz
  2427     0199  299B               	goto	u2953
  2428     019A  07BB               	addwf	___flmul@grs+3,f
  2429     019B                     u2953:
  2430     019B                     l1987:
  2431     019B  3008               	movlw	8
  2432     019C  00B1               	movwf	??___flmul
  2433     019D                     u2965:
  2434     019D  1003               	clrc
  2435     019E  0DB8               	rlf	___flmul@grs,f
  2436     019F  0DB9               	rlf	___flmul@grs+1,f
  2437     01A0  0DBA               	rlf	___flmul@grs+2,f
  2438     01A1  0DBB               	rlf	___flmul@grs+3,f
  2439     01A2  0BB1               	decfsz	??___flmul,f
  2440     01A3  299D               	goto	u2965
  2441     01A4  0829               	movf	___flmul@b,w
  2442     01A5  00A0               	movwf	__Umul8_16@multiplicand
  2443     01A6  082D               	movf	___flmul@a,w
  2444     01A7  120A  158A  2700  120A  118A  	fcall	__Umul8_16
  2445     01AC  1283               	bcf	3,5	;RP0=0, select bank0
  2446     01AD  1303               	bcf	3,6	;RP1=0, select bank0
  2447     01AE  0821               	movf	?__Umul8_16+1,w
  2448     01AF  00C2               	movwf	___flmul@temp+1
  2449     01B0  0820               	movf	?__Umul8_16,w
  2450     01B1  00C1               	movwf	___flmul@temp
  2451     01B2                     l1989:
  2452     01B2  0841               	movf	___flmul@temp,w
  2453     01B3  00B1               	movwf	??___flmul
  2454     01B4  0842               	movf	___flmul@temp+1,w
  2455     01B5  00B2               	movwf	??___flmul+1
  2456     01B6  01B3               	clrf	??___flmul+2
  2457     01B7  01B4               	clrf	??___flmul+3
  2458     01B8  0831               	movf	??___flmul,w
  2459     01B9  07B8               	addwf	___flmul@grs,f
  2460     01BA  0832               	movf	??___flmul+1,w
  2461     01BB  1103               	clrz
  2462     01BC  1803               	skipnc
  2463     01BD  3E01               	addlw	1
  2464     01BE  1903               	skipnz
  2465     01BF  29C1               	goto	u2971
  2466     01C0  07B9               	addwf	___flmul@grs+1,f
  2467     01C1                     u2971:
  2468     01C1  0833               	movf	??___flmul+2,w
  2469     01C2  1103               	clrz
  2470     01C3  1803               	skipnc
  2471     01C4  3E01               	addlw	1
  2472     01C5  1903               	skipnz
  2473     01C6  29C8               	goto	u2972
  2474     01C7  07BA               	addwf	___flmul@grs+2,f
  2475     01C8                     u2972:
  2476     01C8  0834               	movf	??___flmul+3,w
  2477     01C9  1103               	clrz
  2478     01CA  1803               	skipnc
  2479     01CB  3E01               	addlw	1
  2480     01CC  1903               	skipnz
  2481     01CD  29CF               	goto	u2973
  2482     01CE  07BB               	addwf	___flmul@grs+3,f
  2483     01CF                     u2973:
  2484     01CF                     l1991:
  2485     01CF  082A               	movf	___flmul@b+1,w
  2486     01D0  00A0               	movwf	__Umul8_16@multiplicand
  2487     01D1  082F               	movf	___flmul@a+2,w
  2488     01D2  120A  158A  2700  120A  118A  	fcall	__Umul8_16
  2489     01D7  1283               	bcf	3,5	;RP0=0, select bank0
  2490     01D8  1303               	bcf	3,6	;RP1=0, select bank0
  2491     01D9  0821               	movf	?__Umul8_16+1,w
  2492     01DA  00C2               	movwf	___flmul@temp+1
  2493     01DB  0820               	movf	?__Umul8_16,w
  2494     01DC  00C1               	movwf	___flmul@temp
  2495     01DD  0841               	movf	___flmul@temp,w
  2496     01DE  00B1               	movwf	??___flmul
  2497     01DF  0842               	movf	___flmul@temp+1,w
  2498     01E0  00B2               	movwf	??___flmul+1
  2499     01E1  01B3               	clrf	??___flmul+2
  2500     01E2  01B4               	clrf	??___flmul+3
  2501     01E3  0831               	movf	??___flmul,w
  2502     01E4  07BD               	addwf	___flmul@prod,f
  2503     01E5  0832               	movf	??___flmul+1,w
  2504     01E6  1103               	clrz
  2505     01E7  1803               	skipnc
  2506     01E8  3E01               	addlw	1
  2507     01E9  1903               	skipnz
  2508     01EA  29EC               	goto	u2981
  2509     01EB  07BE               	addwf	___flmul@prod+1,f
  2510     01EC                     u2981:
  2511     01EC  0833               	movf	??___flmul+2,w
  2512     01ED  1103               	clrz
  2513     01EE  1803               	skipnc
  2514     01EF  3E01               	addlw	1
  2515     01F0  1903               	skipnz
  2516     01F1  29F3               	goto	u2982
  2517     01F2  07BF               	addwf	___flmul@prod+2,f
  2518     01F3                     u2982:
  2519     01F3  0834               	movf	??___flmul+3,w
  2520     01F4  1103               	clrz
  2521     01F5  1803               	skipnc
  2522     01F6  3E01               	addlw	1
  2523     01F7  1903               	skipnz
  2524     01F8  29FA               	goto	u2983
  2525     01F9  07C0               	addwf	___flmul@prod+3,f
  2526     01FA                     u2983:
  2527     01FA                     l1993:
  2528     01FA  082B               	movf	___flmul@b+2,w
  2529     01FB  00A0               	movwf	__Umul8_16@multiplicand
  2530     01FC  082E               	movf	___flmul@a+1,w
  2531     01FD  120A  158A  2700  120A  118A  	fcall	__Umul8_16
  2532     0202  1283               	bcf	3,5	;RP0=0, select bank0
  2533     0203  1303               	bcf	3,6	;RP1=0, select bank0
  2534     0204  0821               	movf	?__Umul8_16+1,w
  2535     0205  00C2               	movwf	___flmul@temp+1
  2536     0206  0820               	movf	?__Umul8_16,w
  2537     0207  00C1               	movwf	___flmul@temp
  2538     0208                     l1995:
  2539     0208  0841               	movf	___flmul@temp,w
  2540     0209  00B1               	movwf	??___flmul
  2541     020A  0842               	movf	___flmul@temp+1,w
  2542     020B  00B2               	movwf	??___flmul+1
  2543     020C  01B3               	clrf	??___flmul+2
  2544     020D  01B4               	clrf	??___flmul+3
  2545     020E  0831               	movf	??___flmul,w
  2546     020F  07BD               	addwf	___flmul@prod,f
  2547     0210  0832               	movf	??___flmul+1,w
  2548     0211  1103               	clrz
  2549     0212  1803               	skipnc
  2550     0213  3E01               	addlw	1
  2551     0214  1903               	skipnz
  2552     0215  2A17               	goto	u2991
  2553     0216  07BE               	addwf	___flmul@prod+1,f
  2554     0217                     u2991:
  2555     0217  0833               	movf	??___flmul+2,w
  2556     0218  1103               	clrz
  2557     0219  1803               	skipnc
  2558     021A  3E01               	addlw	1
  2559     021B  1903               	skipnz
  2560     021C  2A1E               	goto	u2992
  2561     021D  07BF               	addwf	___flmul@prod+2,f
  2562     021E                     u2992:
  2563     021E  0834               	movf	??___flmul+3,w
  2564     021F  1103               	clrz
  2565     0220  1803               	skipnc
  2566     0221  3E01               	addlw	1
  2567     0222  1903               	skipnz
  2568     0223  2A25               	goto	u2993
  2569     0224  07C0               	addwf	___flmul@prod+3,f
  2570     0225                     u2993:
  2571     0225  082B               	movf	___flmul@b+2,w
  2572     0226  00A0               	movwf	__Umul8_16@multiplicand
  2573     0227  082F               	movf	___flmul@a+2,w
  2574     0228  120A  158A  2700  120A  118A  	fcall	__Umul8_16
  2575     022D  1283               	bcf	3,5	;RP0=0, select bank0
  2576     022E  1303               	bcf	3,6	;RP1=0, select bank0
  2577     022F  0821               	movf	?__Umul8_16+1,w
  2578     0230  00C2               	movwf	___flmul@temp+1
  2579     0231  0820               	movf	?__Umul8_16,w
  2580     0232  00C1               	movwf	___flmul@temp
  2581     0233                     l1997:
  2582     0233  0841               	movf	___flmul@temp,w
  2583     0234  00B1               	movwf	??___flmul
  2584     0235  0842               	movf	___flmul@temp+1,w
  2585     0236  00B2               	movwf	??___flmul+1
  2586     0237  01B3               	clrf	??___flmul+2
  2587     0238  01B4               	clrf	??___flmul+3
  2588     0239  3008               	movlw	8
  2589     023A                     u3005:
  2590     023A  1003               	clrc
  2591     023B  0DB1               	rlf	??___flmul,f
  2592     023C  0DB2               	rlf	??___flmul+1,f
  2593     023D  0DB3               	rlf	??___flmul+2,f
  2594     023E  0DB4               	rlf	??___flmul+3,f
  2595     023F                     u3000:
  2596     023F  3EFF               	addlw	-1
  2597     0240  1D03               	skipz
  2598     0241  2A3A               	goto	u3005
  2599     0242  0831               	movf	??___flmul,w
  2600     0243  07BD               	addwf	___flmul@prod,f
  2601     0244  0832               	movf	??___flmul+1,w
  2602     0245  1103               	clrz
  2603     0246  1803               	skipnc
  2604     0247  3E01               	addlw	1
  2605     0248  1903               	skipnz
  2606     0249  2A4B               	goto	u3011
  2607     024A  07BE               	addwf	___flmul@prod+1,f
  2608     024B                     u3011:
  2609     024B  0833               	movf	??___flmul+2,w
  2610     024C  1103               	clrz
  2611     024D  1803               	skipnc
  2612     024E  3E01               	addlw	1
  2613     024F  1903               	skipnz
  2614     0250  2A52               	goto	u3012
  2615     0251  07BF               	addwf	___flmul@prod+2,f
  2616     0252                     u3012:
  2617     0252  0834               	movf	??___flmul+3,w
  2618     0253  1103               	clrz
  2619     0254  1803               	skipnc
  2620     0255  3E01               	addlw	1
  2621     0256  1903               	skipnz
  2622     0257  2A59               	goto	u3013
  2623     0258  07C0               	addwf	___flmul@prod+3,f
  2624     0259                     u3013:
  2625     0259                     l1999:
  2626     0259  0838               	movf	___flmul@grs,w
  2627     025A  00B1               	movwf	??___flmul
  2628     025B  0839               	movf	___flmul@grs+1,w
  2629     025C  00B2               	movwf	??___flmul+1
  2630     025D  083A               	movf	___flmul@grs+2,w
  2631     025E  00B3               	movwf	??___flmul+2
  2632     025F  083B               	movf	___flmul@grs+3,w
  2633     0260  00B4               	movwf	??___flmul+3
  2634     0261  3018               	movlw	24
  2635     0262                     u3025:
  2636     0262  1003               	clrc
  2637     0263  0CB4               	rrf	??___flmul+3,f
  2638     0264  0CB3               	rrf	??___flmul+2,f
  2639     0265  0CB2               	rrf	??___flmul+1,f
  2640     0266  0CB1               	rrf	??___flmul,f
  2641     0267                     u3020:
  2642     0267  3EFF               	addlw	-1
  2643     0268  1D03               	skipz
  2644     0269  2A62               	goto	u3025
  2645     026A  0831               	movf	??___flmul,w
  2646     026B  07BD               	addwf	___flmul@prod,f
  2647     026C  0832               	movf	??___flmul+1,w
  2648     026D  1103               	clrz
  2649     026E  1803               	skipnc
  2650     026F  3E01               	addlw	1
  2651     0270  1903               	skipnz
  2652     0271  2A73               	goto	u3031
  2653     0272  07BE               	addwf	___flmul@prod+1,f
  2654     0273                     u3031:
  2655     0273  0833               	movf	??___flmul+2,w
  2656     0274  1103               	clrz
  2657     0275  1803               	skipnc
  2658     0276  3E01               	addlw	1
  2659     0277  1903               	skipnz
  2660     0278  2A7A               	goto	u3032
  2661     0279  07BF               	addwf	___flmul@prod+2,f
  2662     027A                     u3032:
  2663     027A  0834               	movf	??___flmul+3,w
  2664     027B  1103               	clrz
  2665     027C  1803               	skipnc
  2666     027D  3E01               	addlw	1
  2667     027E  1903               	skipnz
  2668     027F  2A81               	goto	u3033
  2669     0280  07C0               	addwf	___flmul@prod+3,f
  2670     0281                     u3033:
  2671     0281                     l2001:
  2672     0281  3008               	movlw	8
  2673     0282  00B1               	movwf	??___flmul
  2674     0283                     u3045:
  2675     0283  1003               	clrc
  2676     0284  0DB8               	rlf	___flmul@grs,f
  2677     0285  0DB9               	rlf	___flmul@grs+1,f
  2678     0286  0DBA               	rlf	___flmul@grs+2,f
  2679     0287  0DBB               	rlf	___flmul@grs+3,f
  2680     0288  0BB1               	decfsz	??___flmul,f
  2681     0289  2A83               	goto	u3045
  2682     028A                     l2003:
  2683     028A  083C               	movf	___flmul@bexp,w
  2684     028B  0737               	addwf	___flmul@aexp,w
  2685     028C  00B1               	movwf	??___flmul
  2686     028D  01B2               	clrf	??___flmul+1
  2687     028E  0DB2               	rlf	??___flmul+1,f
  2688     028F  0831               	movf	??___flmul,w
  2689     0290  3E82               	addlw	130
  2690     0291  00C1               	movwf	___flmul@temp
  2691     0292  0832               	movf	??___flmul+1,w
  2692     0293  1803               	skipnc
  2693     0294  3E01               	addlw	1
  2694     0295  3EFF               	addlw	255
  2695     0296  00C2               	movwf	___flmul@temp+1
  2696     0297  2AB5               	goto	l2015
  2697     0298                     l2005:
  2698     0298  3001               	movlw	1
  2699     0299  00B1               	movwf	??___flmul
  2700     029A                     u3055:
  2701     029A  1003               	clrc
  2702     029B  0DBD               	rlf	___flmul@prod,f
  2703     029C  0DBE               	rlf	___flmul@prod+1,f
  2704     029D  0DBF               	rlf	___flmul@prod+2,f
  2705     029E  0DC0               	rlf	___flmul@prod+3,f
  2706     029F  0BB1               	decfsz	??___flmul,f
  2707     02A0  2A9A               	goto	u3055
  2708     02A1                     l2007:
  2709     02A1  1FBB               	btfss	___flmul@grs+3,7
  2710     02A2  2AA4               	goto	u3061
  2711     02A3  2AA5               	goto	u3060
  2712     02A4                     u3061:
  2713     02A4  2AA6               	goto	l2011
  2714     02A5                     u3060:
  2715     02A5                     l2009:
  2716     02A5  143D               	bsf	___flmul@prod,0
  2717     02A6                     l2011:
  2718     02A6  3001               	movlw	1
  2719     02A7  00B1               	movwf	??___flmul
  2720     02A8                     u3075:
  2721     02A8  1003               	clrc
  2722     02A9  0DB8               	rlf	___flmul@grs,f
  2723     02AA  0DB9               	rlf	___flmul@grs+1,f
  2724     02AB  0DBA               	rlf	___flmul@grs+2,f
  2725     02AC  0DBB               	rlf	___flmul@grs+3,f
  2726     02AD  0BB1               	decfsz	??___flmul,f
  2727     02AE  2AA8               	goto	u3075
  2728     02AF                     l2013:
  2729     02AF  30FF               	movlw	255
  2730     02B0  07C1               	addwf	___flmul@temp,f
  2731     02B1  1803               	skipnc
  2732     02B2  0AC2               	incf	___flmul@temp+1,f
  2733     02B3  30FF               	movlw	255
  2734     02B4  07C2               	addwf	___flmul@temp+1,f
  2735     02B5                     l2015:
  2736     02B5  1FBF               	btfss	___flmul@prod+2,7
  2737     02B6  2AB8               	goto	u3081
  2738     02B7  2AB9               	goto	u3080
  2739     02B8                     u3081:
  2740     02B8  2A98               	goto	l2005
  2741     02B9                     u3080:
  2742     02B9                     l2017:
  2743     02B9  01B7               	clrf	___flmul@aexp
  2744     02BA                     l2019:
  2745     02BA  1FBB               	btfss	___flmul@grs+3,7
  2746     02BB  2ABD               	goto	u3091
  2747     02BC  2ABE               	goto	u3090
  2748     02BD                     u3091:
  2749     02BD  2ADA               	goto	l2027
  2750     02BE                     u3090:
  2751     02BE                     l2021:
  2752     02BE  30FF               	movlw	255
  2753     02BF  0538               	andwf	___flmul@grs,w
  2754     02C0  00B1               	movwf	??___flmul
  2755     02C1  30FF               	movlw	255
  2756     02C2  0539               	andwf	___flmul@grs+1,w
  2757     02C3  00B2               	movwf	??___flmul+1
  2758     02C4  30FF               	movlw	255
  2759     02C5  053A               	andwf	___flmul@grs+2,w
  2760     02C6  00B3               	movwf	??___flmul+2
  2761     02C7  307F               	movlw	127
  2762     02C8  053B               	andwf	___flmul@grs+3,w
  2763     02C9  00B4               	movwf	??___flmul+3
  2764     02CA  0834               	movf	??___flmul+3,w
  2765     02CB  0433               	iorwf	??___flmul+2,w
  2766     02CC  0432               	iorwf	??___flmul+1,w
  2767     02CD  0431               	iorwf	??___flmul,w
  2768     02CE  1903               	skipnz
  2769     02CF  2AD1               	goto	u3101
  2770     02D0  2AD2               	goto	u3100
  2771     02D1                     u3101:
  2772     02D1  2AD5               	goto	l562
  2773     02D2                     u3100:
  2774     02D2                     l2023:
  2775     02D2  3001               	movlw	1
  2776     02D3  00B7               	movwf	___flmul@aexp
  2777     02D4  2ADA               	goto	l2027
  2778     02D5                     l562:
  2779     02D5  1C3D               	btfss	___flmul@prod,0
  2780     02D6  2AD8               	goto	u3111
  2781     02D7  2AD9               	goto	u3110
  2782     02D8                     u3111:
  2783     02D8  2ADA               	goto	l2027
  2784     02D9                     u3110:
  2785     02D9  2AD2               	goto	l2023
  2786     02DA                     l2027:
  2787     02DA  0837               	movf	___flmul@aexp,w
  2788     02DB  1903               	btfsc	3,2
  2789     02DC  2ADE               	goto	u3121
  2790     02DD  2ADF               	goto	u3120
  2791     02DE                     u3121:
  2792     02DE  2B10               	goto	l2037
  2793     02DF                     u3120:
  2794     02DF                     l2029:
  2795     02DF  3001               	movlw	1
  2796     02E0  07BD               	addwf	___flmul@prod,f
  2797     02E1  3000               	movlw	0
  2798     02E2  1803               	skipnc
  2799     02E3  3001               	movlw	1
  2800     02E4  07BE               	addwf	___flmul@prod+1,f
  2801     02E5  3000               	movlw	0
  2802     02E6  1803               	skipnc
  2803     02E7  3001               	movlw	1
  2804     02E8  07BF               	addwf	___flmul@prod+2,f
  2805     02E9  3000               	movlw	0
  2806     02EA  1803               	skipnc
  2807     02EB  3001               	movlw	1
  2808     02EC  07C0               	addwf	___flmul@prod+3,f
  2809     02ED                     l2031:
  2810     02ED  1C40               	btfss	___flmul@prod+3,0
  2811     02EE  2AF0               	goto	u3131
  2812     02EF  2AF1               	goto	u3130
  2813     02F0                     u3131:
  2814     02F0  2B10               	goto	l2037
  2815     02F1                     u3130:
  2816     02F1                     l2033:
  2817     02F1  083D               	movf	___flmul@prod,w
  2818     02F2  00B1               	movwf	??___flmul
  2819     02F3  083E               	movf	___flmul@prod+1,w
  2820     02F4  00B2               	movwf	??___flmul+1
  2821     02F5  083F               	movf	___flmul@prod+2,w
  2822     02F6  00B3               	movwf	??___flmul+2
  2823     02F7  0840               	movf	___flmul@prod+3,w
  2824     02F8  00B4               	movwf	??___flmul+3
  2825     02F9  3001               	movlw	1
  2826     02FA  00B5               	movwf	??___flmul+4
  2827     02FB                     u3145:
  2828     02FB  0D34               	rlf	??___flmul+3,w
  2829     02FC  0CB4               	rrf	??___flmul+3,f
  2830     02FD  0CB3               	rrf	??___flmul+2,f
  2831     02FE  0CB2               	rrf	??___flmul+1,f
  2832     02FF  0CB1               	rrf	??___flmul,f
  2833     0300                     u3140:
  2834     0300  0BB5               	decfsz	??___flmul+4,f
  2835     0301  2AFB               	goto	u3145
  2836     0302  0834               	movf	??___flmul+3,w
  2837     0303  00C0               	movwf	___flmul@prod+3
  2838     0304  0833               	movf	??___flmul+2,w
  2839     0305  00BF               	movwf	___flmul@prod+2
  2840     0306  0832               	movf	??___flmul+1,w
  2841     0307  00BE               	movwf	___flmul@prod+1
  2842     0308  0831               	movf	??___flmul,w
  2843     0309  00BD               	movwf	___flmul@prod
  2844     030A                     l2035:
  2845     030A  3001               	movlw	1
  2846     030B  07C1               	addwf	___flmul@temp,f
  2847     030C  1803               	skipnc
  2848     030D  0AC2               	incf	___flmul@temp+1,f
  2849     030E  3000               	movlw	0
  2850     030F  07C2               	addwf	___flmul@temp+1,f
  2851     0310                     l2037:
  2852     0310  0842               	movf	___flmul@temp+1,w
  2853     0311  3A80               	xorlw	128
  2854     0312  00FF               	movwf	btemp+1
  2855     0313  3080               	movlw	128
  2856     0314  027F               	subwf	btemp+1,w
  2857     0315  1D03               	skipz
  2858     0316  2B19               	goto	u3155
  2859     0317  30FF               	movlw	255
  2860     0318  0241               	subwf	___flmul@temp,w
  2861     0319                     u3155:
  2862     0319  1C03               	skipc
  2863     031A  2B1C               	goto	u3151
  2864     031B  2B1D               	goto	u3150
  2865     031C                     u3151:
  2866     031C  2B28               	goto	l2041
  2867     031D                     u3150:
  2868     031D                     l2039:
  2869     031D  307F               	movlw	127
  2870     031E  1283               	bcf	3,5	;RP0=0, select bank0
  2871     031F  1303               	bcf	3,6	;RP1=0, select bank0
  2872     0320  00C0               	movwf	___flmul@prod+3
  2873     0321  3080               	movlw	128
  2874     0322  00BF               	movwf	___flmul@prod+2
  2875     0323  3000               	movlw	0
  2876     0324  00BE               	movwf	___flmul@prod+1
  2877     0325  3000               	movlw	0
  2878     0326  00BD               	movwf	___flmul@prod
  2879     0327  2B59               	goto	l568
  2880     0328                     l2041:
  2881     0328  1283               	bcf	3,5	;RP0=0, select bank0
  2882     0329  1303               	bcf	3,6	;RP1=0, select bank0
  2883     032A  0842               	movf	___flmul@temp+1,w
  2884     032B  3A80               	xorlw	128
  2885     032C  00FF               	movwf	btemp+1
  2886     032D  3080               	movlw	128
  2887     032E  027F               	subwf	btemp+1,w
  2888     032F  1D03               	skipz
  2889     0330  2B33               	goto	u3165
  2890     0331  3001               	movlw	1
  2891     0332  0241               	subwf	___flmul@temp,w
  2892     0333                     u3165:
  2893     0333  1803               	skipnc
  2894     0334  2B36               	goto	u3161
  2895     0335  2B37               	goto	u3160
  2896     0336                     u3161:
  2897     0336  2B43               	goto	l2047
  2898     0337                     u3160:
  2899     0337                     l2043:
  2900     0337  3000               	movlw	0
  2901     0338  1283               	bcf	3,5	;RP0=0, select bank0
  2902     0339  1303               	bcf	3,6	;RP1=0, select bank0
  2903     033A  00C0               	movwf	___flmul@prod+3
  2904     033B  3000               	movlw	0
  2905     033C  00BF               	movwf	___flmul@prod+2
  2906     033D  3000               	movlw	0
  2907     033E  00BE               	movwf	___flmul@prod+1
  2908     033F  3000               	movlw	0
  2909     0340  00BD               	movwf	___flmul@prod
  2910     0341                     l2045:
  2911     0341  01B6               	clrf	___flmul@sign
  2912     0342  2B59               	goto	l568
  2913     0343                     l2047:
  2914     0343  1283               	bcf	3,5	;RP0=0, select bank0
  2915     0344  1303               	bcf	3,6	;RP1=0, select bank0
  2916     0345  0841               	movf	___flmul@temp,w
  2917     0346  00BC               	movwf	___flmul@bexp
  2918     0347  30FF               	movlw	255
  2919     0348  05BD               	andwf	___flmul@prod,f
  2920     0349  30FF               	movlw	255
  2921     034A  05BE               	andwf	___flmul@prod+1,f
  2922     034B  307F               	movlw	127
  2923     034C  05BF               	andwf	___flmul@prod+2,f
  2924     034D  3000               	movlw	0
  2925     034E  05C0               	andwf	___flmul@prod+3,f
  2926     034F                     l2049:
  2927     034F  1C3C               	btfss	___flmul@bexp,0
  2928     0350  2B52               	goto	u3171
  2929     0351  2B53               	goto	u3170
  2930     0352                     u3171:
  2931     0352  2B54               	goto	l2053
  2932     0353                     u3170:
  2933     0353                     l2051:
  2934     0353  17BF               	bsf	___flmul@prod+2,7
  2935     0354                     l2053:
  2936     0354  083C               	movf	___flmul@bexp,w
  2937     0355  00B1               	movwf	??___flmul
  2938     0356  1003               	clrc
  2939     0357  0C31               	rrf	??___flmul,w
  2940     0358  00C0               	movwf	___flmul@prod+3
  2941     0359                     l568:
  2942     0359  0836               	movf	___flmul@sign,w
  2943     035A  04C0               	iorwf	___flmul@prod+3,f
  2944     035B                     l2055:
  2945     035B  0840               	movf	___flmul@prod+3,w
  2946     035C  00AC               	movwf	?___flmul+3
  2947     035D  083F               	movf	___flmul@prod+2,w
  2948     035E  00AB               	movwf	?___flmul+2
  2949     035F  083E               	movf	___flmul@prod+1,w
  2950     0360  00AA               	movwf	?___flmul+1
  2951     0361  083D               	movf	___flmul@prod,w
  2952     0362  00A9               	movwf	?___flmul
  2953     0363                     l556:
  2954     0363  0008               	return
  2955     0364                     __end_of___flmul:
  2956                           
  2957                           	psect	text10
  2958     0F00                     __ptext10:	
  2959 ;; *************** function __Umul8_16 *****************
  2960 ;; Defined at:
  2961 ;;		line 4 in file "J:\Microchip\xc8\v2.50\pic\sources\c99\common\Umul8_16.c"
  2962 ;; Parameters:    Size  Location     Type
  2963 ;;  multiplier      1    wreg     unsigned char 
  2964 ;;  multiplicand    1    0[BANK0 ] unsigned char 
  2965 ;; Auto vars:     Size  Location     Type
  2966 ;;  multiplier      1    8[BANK0 ] unsigned char 
  2967 ;;  word_mpld       2    6[BANK0 ] unsigned short 
  2968 ;;  product         2    4[BANK0 ] unsigned short 
  2969 ;; Return value:  Size  Location     Type
  2970 ;;                  2    0[BANK0 ] unsigned int 
  2971 ;; Registers used:
  2972 ;;		wreg, status,2, status,0
  2973 ;; Tracked objects:
  2974 ;;		On entry : 0/0
  2975 ;;		On exit  : 0/0
  2976 ;;		Unchanged: 0/0
  2977 ;; Data sizes:     COMMON   BANK0   BANK1   BANK3   BANK2
  2978 ;;      Params:         0       2       0       0       0
  2979 ;;      Locals:         0       5       0       0       0
  2980 ;;      Temps:          0       2       0       0       0
  2981 ;;      Totals:         0       9       0       0       0
  2982 ;;Total ram usage:        9 bytes
  2983 ;; Hardware stack levels used: 1
  2984 ;; Hardware stack levels required when called: 1
  2985 ;; This function calls:
  2986 ;;		Nothing
  2987 ;; This function is called by:
  2988 ;;		___flmul
  2989 ;; This function uses a non-reentrant model
  2990 ;;
  2991                           
  2992     0F00                     __Umul8_16:	
  2993                           ;psect for function __Umul8_16
  2994                           
  2995                           
  2996                           ;incstack = 0
  2997                           ; Regs used in __Umul8_16: [wreg+status,2+status,0]
  2998                           ;__Umul8_16@multiplier stored from wreg
  2999     0F00  1283               	bcf	3,5	;RP0=0, select bank0
  3000     0F01  1303               	bcf	3,6	;RP1=0, select bank0
  3001     0F02  00A8               	movwf	__Umul8_16@multiplier
  3002     0F03                     l1809:
  3003     0F03  01A4               	clrf	__Umul8_16@product
  3004     0F04  01A5               	clrf	__Umul8_16@product+1
  3005     0F05                     l1811:
  3006     0F05  0820               	movf	__Umul8_16@multiplicand,w
  3007     0F06  00A2               	movwf	??__Umul8_16
  3008     0F07  01A3               	clrf	??__Umul8_16+1
  3009     0F08  0822               	movf	??__Umul8_16,w
  3010     0F09  00A6               	movwf	__Umul8_16@word_mpld
  3011     0F0A  0823               	movf	??__Umul8_16+1,w
  3012     0F0B  00A7               	movwf	__Umul8_16@word_mpld+1
  3013     0F0C                     l1813:
  3014     0F0C  1C28               	btfss	__Umul8_16@multiplier,0
  3015     0F0D  2F0F               	goto	u2541
  3016     0F0E  2F10               	goto	u2540
  3017     0F0F                     u2541:
  3018     0F0F  2F16               	goto	l575
  3019     0F10                     u2540:
  3020     0F10                     l1815:
  3021     0F10  0826               	movf	__Umul8_16@word_mpld,w
  3022     0F11  07A4               	addwf	__Umul8_16@product,f
  3023     0F12  1803               	skipnc
  3024     0F13  0AA5               	incf	__Umul8_16@product+1,f
  3025     0F14  0827               	movf	__Umul8_16@word_mpld+1,w
  3026     0F15  07A5               	addwf	__Umul8_16@product+1,f
  3027     0F16                     l575:
  3028     0F16  3001               	movlw	1
  3029     0F17                     u2555:
  3030     0F17  1003               	clrc
  3031     0F18  0DA6               	rlf	__Umul8_16@word_mpld,f
  3032     0F19  0DA7               	rlf	__Umul8_16@word_mpld+1,f
  3033     0F1A  3EFF               	addlw	-1
  3034     0F1B  1D03               	skipz
  3035     0F1C  2F17               	goto	u2555
  3036     0F1D  1003               	clrc
  3037     0F1E  0CA8               	rrf	__Umul8_16@multiplier,f
  3038     0F1F                     l1817:
  3039     0F1F  0828               	movf	__Umul8_16@multiplier,w
  3040     0F20  1D03               	btfss	3,2
  3041     0F21  2F23               	goto	u2561
  3042     0F22  2F24               	goto	u2560
  3043     0F23                     u2561:
  3044     0F23  2F0C               	goto	l1813
  3045     0F24                     u2560:
  3046     0F24                     l1819:
  3047     0F24  0825               	movf	__Umul8_16@product+1,w
  3048     0F25  00A1               	movwf	?__Umul8_16+1
  3049     0F26  0824               	movf	__Umul8_16@product,w
  3050     0F27  00A0               	movwf	?__Umul8_16
  3051     0F28                     l577:
  3052     0F28  0008               	return
  3053     0F29                     __end_of__Umul8_16:
  3054                           
  3055                           	psect	text11
  3056     0364                     __ptext11:	
  3057 ;; *************** function ___fldiv *****************
  3058 ;; Defined at:
  3059 ;;		line 8 in file "J:\Microchip\xc8\v2.50\pic\sources\c99\common\sprcdiv.c"
  3060 ;; Parameters:    Size  Location     Type
  3061 ;;  a               4   14[BANK0 ] unsigned int 
  3062 ;;  b               4   18[BANK0 ] unsigned int 
  3063 ;; Auto vars:     Size  Location     Type
  3064 ;;  grs             4   34[BANK0 ] unsigned long 
  3065 ;;  rem             4   27[BANK0 ] unsigned long 
  3066 ;;  new_exp         2   32[BANK0 ] short 
  3067 ;;  aexp            1   39[BANK0 ] unsigned char 
  3068 ;;  bexp            1   38[BANK0 ] unsigned char 
  3069 ;;  sign            1   31[BANK0 ] unsigned char 
  3070 ;; Return value:  Size  Location     Type
  3071 ;;                  4   14[BANK0 ] unsigned char 
  3072 ;; Registers used:
  3073 ;;		wreg, status,2, status,0, btemp+1
  3074 ;; Tracked objects:
  3075 ;;		On entry : 0/0
  3076 ;;		On exit  : 0/0
  3077 ;;		Unchanged: 0/0
  3078 ;; Data sizes:     COMMON   BANK0   BANK1   BANK3   BANK2
  3079 ;;      Params:         0       8       0       0       0
  3080 ;;      Locals:         0      13       0       0       0
  3081 ;;      Temps:          0       5       0       0       0
  3082 ;;      Totals:         0      26       0       0       0
  3083 ;;Total ram usage:       26 bytes
  3084 ;; Hardware stack levels used: 1
  3085 ;; Hardware stack levels required when called: 1
  3086 ;; This function calls:
  3087 ;;		Nothing
  3088 ;; This function is called by:
  3089 ;;		_main
  3090 ;; This function uses a non-reentrant model
  3091 ;;
  3092                           
  3093     0364                     ___fldiv:	
  3094                           ;psect for function ___fldiv
  3095                           
  3096     0364                     l1417:	
  3097                           ;incstack = 0
  3098                           ; Regs used in ___fldiv: [wreg+status,2+status,0+btemp+1]
  3099                           
  3100     0364  1283               	bcf	3,5	;RP0=0, select bank0
  3101     0365  1303               	bcf	3,6	;RP1=0, select bank0
  3102     0366  0835               	movf	___fldiv@b+3,w
  3103     0367  00BF               	movwf	___fldiv@sign
  3104     0368                     l1419:
  3105     0368  3080               	movlw	128
  3106     0369  05BF               	andwf	___fldiv@sign,f
  3107     036A                     l1421:
  3108     036A  0835               	movf	___fldiv@b+3,w
  3109     036B  00B6               	movwf	??___fldiv
  3110     036C  0736               	addwf	??___fldiv,w
  3111     036D  00C6               	movwf	___fldiv@bexp
  3112     036E                     l1423:
  3113     036E  1FB4               	btfss	___fldiv@b+2,7
  3114     036F  2B71               	goto	u1741
  3115     0370  2B72               	goto	u1740
  3116     0371                     u1741:
  3117     0371  2B73               	goto	l1427
  3118     0372                     u1740:
  3119     0372                     l1425:
  3120     0372  1446               	bsf	___fldiv@bexp,0
  3121     0373                     l1427:
  3122     0373  0846               	movf	___fldiv@bexp,w
  3123     0374  1903               	btfsc	3,2
  3124     0375  2B77               	goto	u1751
  3125     0376  2B78               	goto	u1750
  3126     0377                     u1751:
  3127     0377  2B88               	goto	l1437
  3128     0378                     u1750:
  3129     0378                     l1429:
  3130     0378  0A46               	incf	___fldiv@bexp,w
  3131     0379  1D03               	btfss	3,2
  3132     037A  2B7C               	goto	u1761
  3133     037B  2B7D               	goto	u1760
  3134     037C                     u1761:
  3135     037C  2B85               	goto	l1433
  3136     037D                     u1760:
  3137     037D                     l1431:
  3138     037D  3000               	movlw	0
  3139     037E  00B5               	movwf	___fldiv@b+3
  3140     037F  3000               	movlw	0
  3141     0380  00B4               	movwf	___fldiv@b+2
  3142     0381  3000               	movlw	0
  3143     0382  00B3               	movwf	___fldiv@b+1
  3144     0383  3000               	movlw	0
  3145     0384  00B2               	movwf	___fldiv@b
  3146     0385                     l1433:
  3147     0385  17B4               	bsf	___fldiv@b+2,7
  3148     0386                     l1435:
  3149     0386  01B5               	clrf	___fldiv@b+3
  3150     0387  2B90               	goto	l1439
  3151     0388                     l1437:
  3152     0388  3000               	movlw	0
  3153     0389  00B5               	movwf	___fldiv@b+3
  3154     038A  3000               	movlw	0
  3155     038B  00B4               	movwf	___fldiv@b+2
  3156     038C  3000               	movlw	0
  3157     038D  00B3               	movwf	___fldiv@b+1
  3158     038E  3000               	movlw	0
  3159     038F  00B2               	movwf	___fldiv@b
  3160     0390                     l1439:
  3161     0390  0831               	movf	___fldiv@a+3,w
  3162     0391  3980               	andlw	128
  3163     0392  06BF               	xorwf	___fldiv@sign,f
  3164     0393                     l1441:
  3165     0393  0831               	movf	___fldiv@a+3,w
  3166     0394  00B6               	movwf	??___fldiv
  3167     0395  0736               	addwf	??___fldiv,w
  3168     0396  00C7               	movwf	___fldiv@aexp
  3169     0397                     l1443:
  3170     0397  1FB0               	btfss	___fldiv@a+2,7
  3171     0398  2B9A               	goto	u1771
  3172     0399  2B9B               	goto	u1770
  3173     039A                     u1771:
  3174     039A  2B9C               	goto	l1447
  3175     039B                     u1770:
  3176     039B                     l1445:
  3177     039B  1447               	bsf	___fldiv@aexp,0
  3178     039C                     l1447:
  3179     039C  0847               	movf	___fldiv@aexp,w
  3180     039D  1903               	btfsc	3,2
  3181     039E  2BA0               	goto	u1781
  3182     039F  2BA1               	goto	u1780
  3183     03A0                     u1781:
  3184     03A0  2BB1               	goto	l1457
  3185     03A1                     u1780:
  3186     03A1                     l1449:
  3187     03A1  0A47               	incf	___fldiv@aexp,w
  3188     03A2  1D03               	btfss	3,2
  3189     03A3  2BA5               	goto	u1791
  3190     03A4  2BA6               	goto	u1790
  3191     03A5                     u1791:
  3192     03A5  2BAE               	goto	l1453
  3193     03A6                     u1790:
  3194     03A6                     l1451:
  3195     03A6  3000               	movlw	0
  3196     03A7  00B1               	movwf	___fldiv@a+3
  3197     03A8  3000               	movlw	0
  3198     03A9  00B0               	movwf	___fldiv@a+2
  3199     03AA  3000               	movlw	0
  3200     03AB  00AF               	movwf	___fldiv@a+1
  3201     03AC  3000               	movlw	0
  3202     03AD  00AE               	movwf	___fldiv@a
  3203     03AE                     l1453:
  3204     03AE  17B0               	bsf	___fldiv@a+2,7
  3205     03AF                     l1455:
  3206     03AF  01B1               	clrf	___fldiv@a+3
  3207     03B0  2BB9               	goto	l516
  3208     03B1                     l1457:
  3209     03B1  3000               	movlw	0
  3210     03B2  00B1               	movwf	___fldiv@a+3
  3211     03B3  3000               	movlw	0
  3212     03B4  00B0               	movwf	___fldiv@a+2
  3213     03B5  3000               	movlw	0
  3214     03B6  00AF               	movwf	___fldiv@a+1
  3215     03B7  3000               	movlw	0
  3216     03B8  00AE               	movwf	___fldiv@a
  3217     03B9                     l516:
  3218     03B9  0831               	movf	___fldiv@a+3,w
  3219     03BA  0430               	iorwf	___fldiv@a+2,w
  3220     03BB  042F               	iorwf	___fldiv@a+1,w
  3221     03BC  042E               	iorwf	___fldiv@a,w
  3222     03BD  1D03               	skipz
  3223     03BE  2BC0               	goto	u1801
  3224     03BF  2BC1               	goto	u1800
  3225     03C0                     u1801:
  3226     03C0  2BD8               	goto	l1467
  3227     03C1                     u1800:
  3228     03C1                     l1459:
  3229     03C1  3000               	movlw	0
  3230     03C2  00B5               	movwf	___fldiv@b+3
  3231     03C3  3000               	movlw	0
  3232     03C4  00B4               	movwf	___fldiv@b+2
  3233     03C5  3000               	movlw	0
  3234     03C6  00B3               	movwf	___fldiv@b+1
  3235     03C7  3000               	movlw	0
  3236     03C8  00B2               	movwf	___fldiv@b
  3237     03C9  3080               	movlw	128
  3238     03CA  04B4               	iorwf	___fldiv@b+2,f
  3239     03CB  307F               	movlw	127
  3240     03CC  04B5               	iorwf	___fldiv@b+3,f
  3241     03CD                     l1461:
  3242     03CD  083F               	movf	___fldiv@sign,w
  3243     03CE  04B5               	iorwf	___fldiv@b+3,f
  3244     03CF                     l1463:
  3245     03CF  0835               	movf	___fldiv@b+3,w
  3246     03D0  00B1               	movwf	?___fldiv+3
  3247     03D1  0834               	movf	___fldiv@b+2,w
  3248     03D2  00B0               	movwf	?___fldiv+2
  3249     03D3  0833               	movf	___fldiv@b+1,w
  3250     03D4  00AF               	movwf	?___fldiv+1
  3251     03D5  0832               	movf	___fldiv@b,w
  3252     03D6  00AE               	movwf	?___fldiv
  3253     03D7  2D2D               	goto	l518
  3254     03D8                     l1467:
  3255     03D8  0846               	movf	___fldiv@bexp,w
  3256     03D9  1D03               	btfss	3,2
  3257     03DA  2BDC               	goto	u1811
  3258     03DB  2BDD               	goto	u1810
  3259     03DC                     u1811:
  3260     03DC  2BE6               	goto	l1473
  3261     03DD                     u1810:
  3262     03DD                     l1469:
  3263     03DD  3000               	movlw	0
  3264     03DE  00B1               	movwf	?___fldiv+3
  3265     03DF  3000               	movlw	0
  3266     03E0  00B0               	movwf	?___fldiv+2
  3267     03E1  3000               	movlw	0
  3268     03E2  00AF               	movwf	?___fldiv+1
  3269     03E3  3000               	movlw	0
  3270     03E4  00AE               	movwf	?___fldiv
  3271     03E5  2D2D               	goto	l518
  3272     03E6                     l1473:
  3273     03E6  0846               	movf	___fldiv@bexp,w
  3274     03E7  00B6               	movwf	??___fldiv
  3275     03E8  01B7               	clrf	??___fldiv+1
  3276     03E9  0837               	movf	??___fldiv+1,w
  3277     03EA  00B9               	movwf	??___fldiv+3
  3278     03EB  0847               	movf	___fldiv@aexp,w
  3279     03EC  0236               	subwf	??___fldiv,w
  3280     03ED  00B8               	movwf	??___fldiv+2
  3281     03EE  1C03               	skipc
  3282     03EF  03B9               	decf	??___fldiv+3,f
  3283     03F0  0838               	movf	??___fldiv+2,w
  3284     03F1  3E7F               	addlw	127
  3285     03F2  00C0               	movwf	___fldiv@new_exp
  3286     03F3  0839               	movf	??___fldiv+3,w
  3287     03F4  1803               	skipnc
  3288     03F5  3E01               	addlw	1
  3289     03F6  3E00               	addlw	0
  3290     03F7  00C1               	movwf	___fldiv@new_exp+1
  3291     03F8                     l1475:
  3292     03F8  0835               	movf	___fldiv@b+3,w
  3293     03F9  00BE               	movwf	___fldiv@rem+3
  3294     03FA  0834               	movf	___fldiv@b+2,w
  3295     03FB  00BD               	movwf	___fldiv@rem+2
  3296     03FC  0833               	movf	___fldiv@b+1,w
  3297     03FD  00BC               	movwf	___fldiv@rem+1
  3298     03FE  0832               	movf	___fldiv@b,w
  3299     03FF  00BB               	movwf	___fldiv@rem
  3300     0400                     l1477:
  3301     0400  3000               	movlw	0
  3302     0401  00B5               	movwf	___fldiv@b+3
  3303     0402  3000               	movlw	0
  3304     0403  00B4               	movwf	___fldiv@b+2
  3305     0404  3000               	movlw	0
  3306     0405  00B3               	movwf	___fldiv@b+1
  3307     0406  3000               	movlw	0
  3308     0407  00B2               	movwf	___fldiv@b
  3309     0408                     l1479:
  3310     0408  3000               	movlw	0
  3311     0409  00C5               	movwf	___fldiv@grs+3
  3312     040A  3000               	movlw	0
  3313     040B  00C4               	movwf	___fldiv@grs+2
  3314     040C  3000               	movlw	0
  3315     040D  00C3               	movwf	___fldiv@grs+1
  3316     040E  3000               	movlw	0
  3317     040F  00C2               	movwf	___fldiv@grs
  3318     0410                     l1481:
  3319     0410  01C7               	clrf	___fldiv@aexp
  3320     0411  2C5A               	goto	l1501
  3321     0412                     l1483:
  3322     0412  0847               	movf	___fldiv@aexp,w
  3323     0413  1903               	btfsc	3,2
  3324     0414  2C16               	goto	u1821
  3325     0415  2C17               	goto	u1820
  3326     0416                     u1821:
  3327     0416  2C37               	goto	l1493
  3328     0417                     u1820:
  3329     0417                     l1485:
  3330     0417  3001               	movlw	1
  3331     0418  00B6               	movwf	??___fldiv
  3332     0419                     u1835:
  3333     0419  1003               	clrc
  3334     041A  0DBB               	rlf	___fldiv@rem,f
  3335     041B  0DBC               	rlf	___fldiv@rem+1,f
  3336     041C  0DBD               	rlf	___fldiv@rem+2,f
  3337     041D  0DBE               	rlf	___fldiv@rem+3,f
  3338     041E  0BB6               	decfsz	??___fldiv,f
  3339     041F  2C19               	goto	u1835
  3340     0420  3001               	movlw	1
  3341     0421  00B6               	movwf	??___fldiv
  3342     0422                     u1845:
  3343     0422  1003               	clrc
  3344     0423  0DB2               	rlf	___fldiv@b,f
  3345     0424  0DB3               	rlf	___fldiv@b+1,f
  3346     0425  0DB4               	rlf	___fldiv@b+2,f
  3347     0426  0DB5               	rlf	___fldiv@b+3,f
  3348     0427  0BB6               	decfsz	??___fldiv,f
  3349     0428  2C22               	goto	u1845
  3350     0429                     l1487:
  3351     0429  1FC5               	btfss	___fldiv@grs+3,7
  3352     042A  2C2C               	goto	u1851
  3353     042B  2C2D               	goto	u1850
  3354     042C                     u1851:
  3355     042C  2C2E               	goto	l1491
  3356     042D                     u1850:
  3357     042D                     l1489:
  3358     042D  1432               	bsf	___fldiv@b,0
  3359     042E                     l1491:
  3360     042E  3001               	movlw	1
  3361     042F  00B6               	movwf	??___fldiv
  3362     0430                     u1865:
  3363     0430  1003               	clrc
  3364     0431  0DC2               	rlf	___fldiv@grs,f
  3365     0432  0DC3               	rlf	___fldiv@grs+1,f
  3366     0433  0DC4               	rlf	___fldiv@grs+2,f
  3367     0434  0DC5               	rlf	___fldiv@grs+3,f
  3368     0435  0BB6               	decfsz	??___fldiv,f
  3369     0436  2C30               	goto	u1865
  3370     0437                     l1493:
  3371     0437  0831               	movf	___fldiv@a+3,w
  3372     0438  023E               	subwf	___fldiv@rem+3,w
  3373     0439  1D03               	skipz
  3374     043A  2C45               	goto	u1875
  3375     043B  0830               	movf	___fldiv@a+2,w
  3376     043C  023D               	subwf	___fldiv@rem+2,w
  3377     043D  1D03               	skipz
  3378     043E  2C45               	goto	u1875
  3379     043F  082F               	movf	___fldiv@a+1,w
  3380     0440  023C               	subwf	___fldiv@rem+1,w
  3381     0441  1D03               	skipz
  3382     0442  2C45               	goto	u1875
  3383     0443  082E               	movf	___fldiv@a,w
  3384     0444  023B               	subwf	___fldiv@rem,w
  3385     0445                     u1875:
  3386     0445  1C03               	skipc
  3387     0446  2C48               	goto	u1871
  3388     0447  2C49               	goto	u1870
  3389     0448                     u1871:
  3390     0448  2C58               	goto	l1499
  3391     0449                     u1870:
  3392     0449                     l1495:
  3393     0449  1745               	bsf	___fldiv@grs+3,6
  3394     044A                     l1497:
  3395     044A  082E               	movf	___fldiv@a,w
  3396     044B  02BB               	subwf	___fldiv@rem,f
  3397     044C  082F               	movf	___fldiv@a+1,w
  3398     044D  1C03               	skipc
  3399     044E  0F2F               	incfsz	___fldiv@a+1,w
  3400     044F  02BC               	subwf	___fldiv@rem+1,f
  3401     0450  0830               	movf	___fldiv@a+2,w
  3402     0451  1C03               	skipc
  3403     0452  0F30               	incfsz	___fldiv@a+2,w
  3404     0453  02BD               	subwf	___fldiv@rem+2,f
  3405     0454  0831               	movf	___fldiv@a+3,w
  3406     0455  1C03               	skipc
  3407     0456  0F31               	incfsz	___fldiv@a+3,w
  3408     0457  02BE               	subwf	___fldiv@rem+3,f
  3409     0458                     l1499:
  3410     0458  3001               	movlw	1
  3411     0459  07C7               	addwf	___fldiv@aexp,f
  3412     045A                     l1501:
  3413     045A  301A               	movlw	26
  3414     045B  0247               	subwf	___fldiv@aexp,w
  3415     045C  1C03               	skipc
  3416     045D  2C5F               	goto	u1881
  3417     045E  2C60               	goto	u1880
  3418     045F                     u1881:
  3419     045F  2C12               	goto	l1483
  3420     0460                     u1880:
  3421     0460                     l1503:
  3422     0460  083E               	movf	___fldiv@rem+3,w
  3423     0461  043D               	iorwf	___fldiv@rem+2,w
  3424     0462  043C               	iorwf	___fldiv@rem+1,w
  3425     0463  043B               	iorwf	___fldiv@rem,w
  3426     0464  1903               	skipnz
  3427     0465  2C67               	goto	u1891
  3428     0466  2C68               	goto	u1890
  3429     0467                     u1891:
  3430     0467  2C87               	goto	l1517
  3431     0468                     u1890:
  3432     0468                     l1505:
  3433     0468  1442               	bsf	___fldiv@grs,0
  3434     0469  2C87               	goto	l1517
  3435     046A                     l1507:
  3436     046A  3001               	movlw	1
  3437     046B  00B6               	movwf	??___fldiv
  3438     046C                     u1905:
  3439     046C  1003               	clrc
  3440     046D  0DB2               	rlf	___fldiv@b,f
  3441     046E  0DB3               	rlf	___fldiv@b+1,f
  3442     046F  0DB4               	rlf	___fldiv@b+2,f
  3443     0470  0DB5               	rlf	___fldiv@b+3,f
  3444     0471  0BB6               	decfsz	??___fldiv,f
  3445     0472  2C6C               	goto	u1905
  3446     0473                     l1509:
  3447     0473  1FC5               	btfss	___fldiv@grs+3,7
  3448     0474  2C76               	goto	u1911
  3449     0475  2C77               	goto	u1910
  3450     0476                     u1911:
  3451     0476  2C78               	goto	l1513
  3452     0477                     u1910:
  3453     0477                     l1511:
  3454     0477  1432               	bsf	___fldiv@b,0
  3455     0478                     l1513:
  3456     0478  3001               	movlw	1
  3457     0479  00B6               	movwf	??___fldiv
  3458     047A                     u1925:
  3459     047A  1003               	clrc
  3460     047B  0DC2               	rlf	___fldiv@grs,f
  3461     047C  0DC3               	rlf	___fldiv@grs+1,f
  3462     047D  0DC4               	rlf	___fldiv@grs+2,f
  3463     047E  0DC5               	rlf	___fldiv@grs+3,f
  3464     047F  0BB6               	decfsz	??___fldiv,f
  3465     0480  2C7A               	goto	u1925
  3466     0481                     l1515:
  3467     0481  30FF               	movlw	255
  3468     0482  07C0               	addwf	___fldiv@new_exp,f
  3469     0483  1803               	skipnc
  3470     0484  0AC1               	incf	___fldiv@new_exp+1,f
  3471     0485  30FF               	movlw	255
  3472     0486  07C1               	addwf	___fldiv@new_exp+1,f
  3473     0487                     l1517:
  3474     0487  1FB4               	btfss	___fldiv@b+2,7
  3475     0488  2C8A               	goto	u1931
  3476     0489  2C8B               	goto	u1930
  3477     048A                     u1931:
  3478     048A  2C6A               	goto	l1507
  3479     048B                     u1930:
  3480     048B                     l1519:
  3481     048B  01C7               	clrf	___fldiv@aexp
  3482     048C                     l1521:
  3483     048C  1FC5               	btfss	___fldiv@grs+3,7
  3484     048D  2C8F               	goto	u1941
  3485     048E  2C90               	goto	u1940
  3486     048F                     u1941:
  3487     048F  2CAC               	goto	l1529
  3488     0490                     u1940:
  3489     0490                     l1523:
  3490     0490  30FF               	movlw	255
  3491     0491  0542               	andwf	___fldiv@grs,w
  3492     0492  00B6               	movwf	??___fldiv
  3493     0493  30FF               	movlw	255
  3494     0494  0543               	andwf	___fldiv@grs+1,w
  3495     0495  00B7               	movwf	??___fldiv+1
  3496     0496  30FF               	movlw	255
  3497     0497  0544               	andwf	___fldiv@grs+2,w
  3498     0498  00B8               	movwf	??___fldiv+2
  3499     0499  307F               	movlw	127
  3500     049A  0545               	andwf	___fldiv@grs+3,w
  3501     049B  00B9               	movwf	??___fldiv+3
  3502     049C  0839               	movf	??___fldiv+3,w
  3503     049D  0438               	iorwf	??___fldiv+2,w
  3504     049E  0437               	iorwf	??___fldiv+1,w
  3505     049F  0436               	iorwf	??___fldiv,w
  3506     04A0  1903               	skipnz
  3507     04A1  2CA3               	goto	u1951
  3508     04A2  2CA4               	goto	u1950
  3509     04A3                     u1951:
  3510     04A3  2CA7               	goto	l532
  3511     04A4                     u1950:
  3512     04A4                     l1525:
  3513     04A4  3001               	movlw	1
  3514     04A5  00C7               	movwf	___fldiv@aexp
  3515     04A6  2CAC               	goto	l1529
  3516     04A7                     l532:
  3517     04A7  1C32               	btfss	___fldiv@b,0
  3518     04A8  2CAA               	goto	u1961
  3519     04A9  2CAB               	goto	u1960
  3520     04AA                     u1961:
  3521     04AA  2CAC               	goto	l1529
  3522     04AB                     u1960:
  3523     04AB  2CA4               	goto	l1525
  3524     04AC                     l1529:
  3525     04AC  0847               	movf	___fldiv@aexp,w
  3526     04AD  1903               	btfsc	3,2
  3527     04AE  2CB0               	goto	u1971
  3528     04AF  2CB1               	goto	u1970
  3529     04B0                     u1971:
  3530     04B0  2CE2               	goto	l1539
  3531     04B1                     u1970:
  3532     04B1                     l1531:
  3533     04B1  3001               	movlw	1
  3534     04B2  07B2               	addwf	___fldiv@b,f
  3535     04B3  3000               	movlw	0
  3536     04B4  1803               	skipnc
  3537     04B5  3001               	movlw	1
  3538     04B6  07B3               	addwf	___fldiv@b+1,f
  3539     04B7  3000               	movlw	0
  3540     04B8  1803               	skipnc
  3541     04B9  3001               	movlw	1
  3542     04BA  07B4               	addwf	___fldiv@b+2,f
  3543     04BB  3000               	movlw	0
  3544     04BC  1803               	skipnc
  3545     04BD  3001               	movlw	1
  3546     04BE  07B5               	addwf	___fldiv@b+3,f
  3547     04BF                     l1533:
  3548     04BF  1C35               	btfss	___fldiv@b+3,0
  3549     04C0  2CC2               	goto	u1981
  3550     04C1  2CC3               	goto	u1980
  3551     04C2                     u1981:
  3552     04C2  2CE2               	goto	l1539
  3553     04C3                     u1980:
  3554     04C3                     l1535:
  3555     04C3  0832               	movf	___fldiv@b,w
  3556     04C4  00B6               	movwf	??___fldiv
  3557     04C5  0833               	movf	___fldiv@b+1,w
  3558     04C6  00B7               	movwf	??___fldiv+1
  3559     04C7  0834               	movf	___fldiv@b+2,w
  3560     04C8  00B8               	movwf	??___fldiv+2
  3561     04C9  0835               	movf	___fldiv@b+3,w
  3562     04CA  00B9               	movwf	??___fldiv+3
  3563     04CB  3001               	movlw	1
  3564     04CC  00BA               	movwf	??___fldiv+4
  3565     04CD                     u1995:
  3566     04CD  0D39               	rlf	??___fldiv+3,w
  3567     04CE  0CB9               	rrf	??___fldiv+3,f
  3568     04CF  0CB8               	rrf	??___fldiv+2,f
  3569     04D0  0CB7               	rrf	??___fldiv+1,f
  3570     04D1  0CB6               	rrf	??___fldiv,f
  3571     04D2                     u1990:
  3572     04D2  0BBA               	decfsz	??___fldiv+4,f
  3573     04D3  2CCD               	goto	u1995
  3574     04D4  0839               	movf	??___fldiv+3,w
  3575     04D5  00B5               	movwf	___fldiv@b+3
  3576     04D6  0838               	movf	??___fldiv+2,w
  3577     04D7  00B4               	movwf	___fldiv@b+2
  3578     04D8  0837               	movf	??___fldiv+1,w
  3579     04D9  00B3               	movwf	___fldiv@b+1
  3580     04DA  0836               	movf	??___fldiv,w
  3581     04DB  00B2               	movwf	___fldiv@b
  3582     04DC                     l1537:
  3583     04DC  3001               	movlw	1
  3584     04DD  07C0               	addwf	___fldiv@new_exp,f
  3585     04DE  1803               	skipnc
  3586     04DF  0AC1               	incf	___fldiv@new_exp+1,f
  3587     04E0  3000               	movlw	0
  3588     04E1  07C1               	addwf	___fldiv@new_exp+1,f
  3589     04E2                     l1539:
  3590     04E2  0841               	movf	___fldiv@new_exp+1,w
  3591     04E3  3A80               	xorlw	128
  3592     04E4  00FF               	movwf	btemp+1
  3593     04E5  3080               	movlw	128
  3594     04E6  027F               	subwf	btemp+1,w
  3595     04E7  1D03               	skipz
  3596     04E8  2CEB               	goto	u2005
  3597     04E9  30FF               	movlw	255
  3598     04EA  0240               	subwf	___fldiv@new_exp,w
  3599     04EB                     u2005:
  3600     04EB  1C03               	skipc
  3601     04EC  2CEE               	goto	u2001
  3602     04ED  2CEF               	goto	u2000
  3603     04EE                     u2001:
  3604     04EE  2CFD               	goto	l1543
  3605     04EF                     u2000:
  3606     04EF                     l1541:
  3607     04EF  30FF               	movlw	255
  3608     04F0  1283               	bcf	3,5	;RP0=0, select bank0
  3609     04F1  1303               	bcf	3,6	;RP1=0, select bank0
  3610     04F2  00C0               	movwf	___fldiv@new_exp
  3611     04F3  3000               	movlw	0
  3612     04F4  00C1               	movwf	___fldiv@new_exp+1
  3613     04F5  3000               	movlw	0
  3614     04F6  00B5               	movwf	___fldiv@b+3
  3615     04F7  3000               	movlw	0
  3616     04F8  00B4               	movwf	___fldiv@b+2
  3617     04F9  3000               	movlw	0
  3618     04FA  00B3               	movwf	___fldiv@b+1
  3619     04FB  3000               	movlw	0
  3620     04FC  00B2               	movwf	___fldiv@b
  3621     04FD                     l1543:
  3622     04FD  1283               	bcf	3,5	;RP0=0, select bank0
  3623     04FE  1303               	bcf	3,6	;RP1=0, select bank0
  3624     04FF  0841               	movf	___fldiv@new_exp+1,w
  3625     0500  3A80               	xorlw	128
  3626     0501  00FF               	movwf	btemp+1
  3627     0502  3080               	movlw	128
  3628     0503  027F               	subwf	btemp+1,w
  3629     0504  1D03               	skipz
  3630     0505  2D08               	goto	u2015
  3631     0506  3001               	movlw	1
  3632     0507  0240               	subwf	___fldiv@new_exp,w
  3633     0508                     u2015:
  3634     0508  1803               	skipnc
  3635     0509  2D0B               	goto	u2011
  3636     050A  2D0C               	goto	u2010
  3637     050B                     u2011:
  3638     050B  2D19               	goto	l538
  3639     050C                     u2010:
  3640     050C                     l1545:
  3641     050C  1283               	bcf	3,5	;RP0=0, select bank0
  3642     050D  1303               	bcf	3,6	;RP1=0, select bank0
  3643     050E  01C0               	clrf	___fldiv@new_exp
  3644     050F  01C1               	clrf	___fldiv@new_exp+1
  3645     0510                     l1547:
  3646     0510  3000               	movlw	0
  3647     0511  00B5               	movwf	___fldiv@b+3
  3648     0512  3000               	movlw	0
  3649     0513  00B4               	movwf	___fldiv@b+2
  3650     0514  3000               	movlw	0
  3651     0515  00B3               	movwf	___fldiv@b+1
  3652     0516  3000               	movlw	0
  3653     0517  00B2               	movwf	___fldiv@b
  3654     0518                     l1549:
  3655     0518  01BF               	clrf	___fldiv@sign
  3656     0519                     l538:
  3657     0519  1283               	bcf	3,5	;RP0=0, select bank0
  3658     051A  1303               	bcf	3,6	;RP1=0, select bank0
  3659     051B  0840               	movf	___fldiv@new_exp,w
  3660     051C  00C6               	movwf	___fldiv@bexp
  3661     051D                     l1551:
  3662     051D  1C46               	btfss	___fldiv@bexp,0
  3663     051E  2D20               	goto	u2021
  3664     051F  2D21               	goto	u2020
  3665     0520                     u2021:
  3666     0520  2D23               	goto	l1555
  3667     0521                     u2020:
  3668     0521                     l1553:
  3669     0521  17B4               	bsf	___fldiv@b+2,7
  3670     0522  2D25               	goto	l540
  3671     0523                     l1555:
  3672     0523  307F               	movlw	127
  3673     0524  05B4               	andwf	___fldiv@b+2,f
  3674     0525                     l540:
  3675     0525  0846               	movf	___fldiv@bexp,w
  3676     0526  00B6               	movwf	??___fldiv
  3677     0527  1003               	clrc
  3678     0528  0C36               	rrf	??___fldiv,w
  3679     0529  00B5               	movwf	___fldiv@b+3
  3680     052A  083F               	movf	___fldiv@sign,w
  3681     052B  04B5               	iorwf	___fldiv@b+3,f
  3682     052C  2BCF               	goto	l1463
  3683     052D                     l518:
  3684     052D  0008               	return
  3685     052E                     __end_of___fldiv:
  3686                           
  3687                           	psect	text12
  3688     0FA7                     __ptext12:	
  3689 ;; *************** function ___awmod *****************
  3690 ;; Defined at:
  3691 ;;		line 5 in file "J:\Microchip\xc8\v2.50\pic\sources\c99\common\awmod.c"
  3692 ;; Parameters:    Size  Location     Type
  3693 ;;  divisor         2   10[BANK0 ] int 
  3694 ;;  dividend        2   12[BANK0 ] int 
  3695 ;; Auto vars:     Size  Location     Type
  3696 ;;  sign            1   15[BANK0 ] unsigned char 
  3697 ;;  counter         1   14[BANK0 ] unsigned char 
  3698 ;; Return value:  Size  Location     Type
  3699 ;;                  2   10[BANK0 ] int 
  3700 ;; Registers used:
  3701 ;;		wreg, status,2, status,0
  3702 ;; Tracked objects:
  3703 ;;		On entry : 0/0
  3704 ;;		On exit  : 0/0
  3705 ;;		Unchanged: 0/0
  3706 ;; Data sizes:     COMMON   BANK0   BANK1   BANK3   BANK2
  3707 ;;      Params:         0       4       0       0       0
  3708 ;;      Locals:         0       2       0       0       0
  3709 ;;      Temps:          0       0       0       0       0
  3710 ;;      Totals:         0       6       0       0       0
  3711 ;;Total ram usage:        6 bytes
  3712 ;; Hardware stack levels used: 1
  3713 ;; Hardware stack levels required when called: 1
  3714 ;; This function calls:
  3715 ;;		Nothing
  3716 ;; This function is called by:
  3717 ;;		_main
  3718 ;; This function uses a non-reentrant model
  3719 ;;
  3720                           
  3721     0FA7                     ___awmod:	
  3722                           ;psect for function ___awmod
  3723                           
  3724     0FA7                     l1295:	
  3725                           ;incstack = 0
  3726                           ; Regs used in ___awmod: [wreg+status,2+status,0]
  3727                           
  3728     0FA7  1283               	bcf	3,5	;RP0=0, select bank0
  3729     0FA8  1303               	bcf	3,6	;RP1=0, select bank0
  3730     0FA9  01AF               	clrf	___awmod@sign
  3731     0FAA                     l1297:
  3732     0FAA  1FAD               	btfss	___awmod@dividend+1,7
  3733     0FAB  2FAD               	goto	u1421
  3734     0FAC  2FAE               	goto	u1420
  3735     0FAD                     u1421:
  3736     0FAD  2FB5               	goto	l1303
  3737     0FAE                     u1420:
  3738     0FAE                     l1299:
  3739     0FAE  09AC               	comf	___awmod@dividend,f
  3740     0FAF  09AD               	comf	___awmod@dividend+1,f
  3741     0FB0  0AAC               	incf	___awmod@dividend,f
  3742     0FB1  1903               	skipnz
  3743     0FB2  0AAD               	incf	___awmod@dividend+1,f
  3744     0FB3                     l1301:
  3745     0FB3  3001               	movlw	1
  3746     0FB4  00AF               	movwf	___awmod@sign
  3747     0FB5                     l1303:
  3748     0FB5  1FAB               	btfss	___awmod@divisor+1,7
  3749     0FB6  2FB8               	goto	u1431
  3750     0FB7  2FB9               	goto	u1430
  3751     0FB8                     u1431:
  3752     0FB8  2FBE               	goto	l1307
  3753     0FB9                     u1430:
  3754     0FB9                     l1305:
  3755     0FB9  09AA               	comf	___awmod@divisor,f
  3756     0FBA  09AB               	comf	___awmod@divisor+1,f
  3757     0FBB  0AAA               	incf	___awmod@divisor,f
  3758     0FBC  1903               	skipnz
  3759     0FBD  0AAB               	incf	___awmod@divisor+1,f
  3760     0FBE                     l1307:
  3761     0FBE  082A               	movf	___awmod@divisor,w
  3762     0FBF  042B               	iorwf	___awmod@divisor+1,w
  3763     0FC0  1903               	btfsc	3,2
  3764     0FC1  2FC3               	goto	u1441
  3765     0FC2  2FC4               	goto	u1440
  3766     0FC3                     u1441:
  3767     0FC3  2FF1               	goto	l1325
  3768     0FC4                     u1440:
  3769     0FC4                     l1309:
  3770     0FC4  3001               	movlw	1
  3771     0FC5  00AE               	movwf	___awmod@counter
  3772     0FC6  2FD0               	goto	l1315
  3773     0FC7                     l1311:
  3774     0FC7  3001               	movlw	1
  3775     0FC8                     u1455:
  3776     0FC8  1003               	clrc
  3777     0FC9  0DAA               	rlf	___awmod@divisor,f
  3778     0FCA  0DAB               	rlf	___awmod@divisor+1,f
  3779     0FCB  3EFF               	addlw	-1
  3780     0FCC  1D03               	skipz
  3781     0FCD  2FC8               	goto	u1455
  3782     0FCE                     l1313:
  3783     0FCE  3001               	movlw	1
  3784     0FCF  07AE               	addwf	___awmod@counter,f
  3785     0FD0                     l1315:
  3786     0FD0  1FAB               	btfss	___awmod@divisor+1,7
  3787     0FD1  2FD3               	goto	u1461
  3788     0FD2  2FD4               	goto	u1460
  3789     0FD3                     u1461:
  3790     0FD3  2FC7               	goto	l1311
  3791     0FD4                     u1460:
  3792     0FD4                     l1317:
  3793     0FD4  082B               	movf	___awmod@divisor+1,w
  3794     0FD5  022D               	subwf	___awmod@dividend+1,w
  3795     0FD6  1D03               	skipz
  3796     0FD7  2FDA               	goto	u1475
  3797     0FD8  082A               	movf	___awmod@divisor,w
  3798     0FD9  022C               	subwf	___awmod@dividend,w
  3799     0FDA                     u1475:
  3800     0FDA  1C03               	skipc
  3801     0FDB  2FDD               	goto	u1471
  3802     0FDC  2FDE               	goto	u1470
  3803     0FDD                     u1471:
  3804     0FDD  2FE4               	goto	l1321
  3805     0FDE                     u1470:
  3806     0FDE                     l1319:
  3807     0FDE  082A               	movf	___awmod@divisor,w
  3808     0FDF  02AC               	subwf	___awmod@dividend,f
  3809     0FE0  082B               	movf	___awmod@divisor+1,w
  3810     0FE1  1C03               	skipc
  3811     0FE2  03AD               	decf	___awmod@dividend+1,f
  3812     0FE3  02AD               	subwf	___awmod@dividend+1,f
  3813     0FE4                     l1321:
  3814     0FE4  3001               	movlw	1
  3815     0FE5                     u1485:
  3816     0FE5  1003               	clrc
  3817     0FE6  0CAB               	rrf	___awmod@divisor+1,f
  3818     0FE7  0CAA               	rrf	___awmod@divisor,f
  3819     0FE8  3EFF               	addlw	-1
  3820     0FE9  1D03               	skipz
  3821     0FEA  2FE5               	goto	u1485
  3822     0FEB                     l1323:
  3823     0FEB  3001               	movlw	1
  3824     0FEC  02AE               	subwf	___awmod@counter,f
  3825     0FED  1D03               	btfss	3,2
  3826     0FEE  2FF0               	goto	u1491
  3827     0FEF  2FF1               	goto	u1490
  3828     0FF0                     u1491:
  3829     0FF0  2FD4               	goto	l1317
  3830     0FF1                     u1490:
  3831     0FF1                     l1325:
  3832     0FF1  082F               	movf	___awmod@sign,w
  3833     0FF2  1903               	btfsc	3,2
  3834     0FF3  2FF5               	goto	u1501
  3835     0FF4  2FF6               	goto	u1500
  3836     0FF5                     u1501:
  3837     0FF5  2FFB               	goto	l1329
  3838     0FF6                     u1500:
  3839     0FF6                     l1327:
  3840     0FF6  09AC               	comf	___awmod@dividend,f
  3841     0FF7  09AD               	comf	___awmod@dividend+1,f
  3842     0FF8  0AAC               	incf	___awmod@dividend,f
  3843     0FF9  1903               	skipnz
  3844     0FFA  0AAD               	incf	___awmod@dividend+1,f
  3845     0FFB                     l1329:
  3846     0FFB  082D               	movf	___awmod@dividend+1,w
  3847     0FFC  00AB               	movwf	?___awmod+1
  3848     0FFD  082C               	movf	___awmod@dividend,w
  3849     0FFE  00AA               	movwf	?___awmod
  3850     0FFF                     l325:
  3851     0FFF  0008               	return
  3852     1000                     __end_of___awmod:
  3853                           
  3854                           	psect	text13
  3855     0796                     __ptext13:	
  3856 ;; *************** function ___awdiv *****************
  3857 ;; Defined at:
  3858 ;;		line 5 in file "J:\Microchip\xc8\v2.50\pic\sources\c99\common\awdiv.c"
  3859 ;; Parameters:    Size  Location     Type
  3860 ;;  divisor         2   10[BANK0 ] int 
  3861 ;;  dividend        2   12[BANK0 ] int 
  3862 ;; Auto vars:     Size  Location     Type
  3863 ;;  quotient        2   16[BANK0 ] int 
  3864 ;;  sign            1   15[BANK0 ] unsigned char 
  3865 ;;  counter         1   14[BANK0 ] unsigned char 
  3866 ;; Return value:  Size  Location     Type
  3867 ;;                  2   10[BANK0 ] int 
  3868 ;; Registers used:
  3869 ;;		wreg, status,2, status,0
  3870 ;; Tracked objects:
  3871 ;;		On entry : 0/0
  3872 ;;		On exit  : 0/0
  3873 ;;		Unchanged: 0/0
  3874 ;; Data sizes:     COMMON   BANK0   BANK1   BANK3   BANK2
  3875 ;;      Params:         0       4       0       0       0
  3876 ;;      Locals:         0       4       0       0       0
  3877 ;;      Temps:          0       0       0       0       0
  3878 ;;      Totals:         0       8       0       0       0
  3879 ;;Total ram usage:        8 bytes
  3880 ;; Hardware stack levels used: 1
  3881 ;; Hardware stack levels required when called: 1
  3882 ;; This function calls:
  3883 ;;		Nothing
  3884 ;; This function is called by:
  3885 ;;		_main
  3886 ;; This function uses a non-reentrant model
  3887 ;;
  3888                           
  3889     0796                     ___awdiv:	
  3890                           ;psect for function ___awdiv
  3891                           
  3892     0796                     l1251:	
  3893                           ;incstack = 0
  3894                           ; Regs used in ___awdiv: [wreg+status,2+status,0]
  3895                           
  3896     0796  1283               	bcf	3,5	;RP0=0, select bank0
  3897     0797  1303               	bcf	3,6	;RP1=0, select bank0
  3898     0798  01AF               	clrf	___awdiv@sign
  3899     0799                     l1253:
  3900     0799  1FAB               	btfss	___awdiv@divisor+1,7
  3901     079A  2F9C               	goto	u1321
  3902     079B  2F9D               	goto	u1320
  3903     079C                     u1321:
  3904     079C  2FA4               	goto	l1259
  3905     079D                     u1320:
  3906     079D                     l1255:
  3907     079D  09AA               	comf	___awdiv@divisor,f
  3908     079E  09AB               	comf	___awdiv@divisor+1,f
  3909     079F  0AAA               	incf	___awdiv@divisor,f
  3910     07A0  1903               	skipnz
  3911     07A1  0AAB               	incf	___awdiv@divisor+1,f
  3912     07A2                     l1257:
  3913     07A2  3001               	movlw	1
  3914     07A3  00AF               	movwf	___awdiv@sign
  3915     07A4                     l1259:
  3916     07A4  1FAD               	btfss	___awdiv@dividend+1,7
  3917     07A5  2FA7               	goto	u1331
  3918     07A6  2FA8               	goto	u1330
  3919     07A7                     u1331:
  3920     07A7  2FAF               	goto	l1265
  3921     07A8                     u1330:
  3922     07A8                     l1261:
  3923     07A8  09AC               	comf	___awdiv@dividend,f
  3924     07A9  09AD               	comf	___awdiv@dividend+1,f
  3925     07AA  0AAC               	incf	___awdiv@dividend,f
  3926     07AB  1903               	skipnz
  3927     07AC  0AAD               	incf	___awdiv@dividend+1,f
  3928     07AD                     l1263:
  3929     07AD  3001               	movlw	1
  3930     07AE  06AF               	xorwf	___awdiv@sign,f
  3931     07AF                     l1265:
  3932     07AF  01B0               	clrf	___awdiv@quotient
  3933     07B0  01B1               	clrf	___awdiv@quotient+1
  3934     07B1                     l1267:
  3935     07B1  082A               	movf	___awdiv@divisor,w
  3936     07B2  042B               	iorwf	___awdiv@divisor+1,w
  3937     07B3  1903               	btfsc	3,2
  3938     07B4  2FB6               	goto	u1341
  3939     07B5  2FB7               	goto	u1340
  3940     07B6                     u1341:
  3941     07B6  2FEC               	goto	l1287
  3942     07B7                     u1340:
  3943     07B7                     l1269:
  3944     07B7  3001               	movlw	1
  3945     07B8  00AE               	movwf	___awdiv@counter
  3946     07B9  2FC3               	goto	l1275
  3947     07BA                     l1271:
  3948     07BA  3001               	movlw	1
  3949     07BB                     u1355:
  3950     07BB  1003               	clrc
  3951     07BC  0DAA               	rlf	___awdiv@divisor,f
  3952     07BD  0DAB               	rlf	___awdiv@divisor+1,f
  3953     07BE  3EFF               	addlw	-1
  3954     07BF  1D03               	skipz
  3955     07C0  2FBB               	goto	u1355
  3956     07C1                     l1273:
  3957     07C1  3001               	movlw	1
  3958     07C2  07AE               	addwf	___awdiv@counter,f
  3959     07C3                     l1275:
  3960     07C3  1FAB               	btfss	___awdiv@divisor+1,7
  3961     07C4  2FC6               	goto	u1361
  3962     07C5  2FC7               	goto	u1360
  3963     07C6                     u1361:
  3964     07C6  2FBA               	goto	l1271
  3965     07C7                     u1360:
  3966     07C7                     l1277:
  3967     07C7  3001               	movlw	1
  3968     07C8                     u1375:
  3969     07C8  1003               	clrc
  3970     07C9  0DB0               	rlf	___awdiv@quotient,f
  3971     07CA  0DB1               	rlf	___awdiv@quotient+1,f
  3972     07CB  3EFF               	addlw	-1
  3973     07CC  1D03               	skipz
  3974     07CD  2FC8               	goto	u1375
  3975     07CE  082B               	movf	___awdiv@divisor+1,w
  3976     07CF  022D               	subwf	___awdiv@dividend+1,w
  3977     07D0  1D03               	skipz
  3978     07D1  2FD4               	goto	u1385
  3979     07D2  082A               	movf	___awdiv@divisor,w
  3980     07D3  022C               	subwf	___awdiv@dividend,w
  3981     07D4                     u1385:
  3982     07D4  1C03               	skipc
  3983     07D5  2FD7               	goto	u1381
  3984     07D6  2FD8               	goto	u1380
  3985     07D7                     u1381:
  3986     07D7  2FDF               	goto	l1283
  3987     07D8                     u1380:
  3988     07D8                     l1279:
  3989     07D8  082A               	movf	___awdiv@divisor,w
  3990     07D9  02AC               	subwf	___awdiv@dividend,f
  3991     07DA  082B               	movf	___awdiv@divisor+1,w
  3992     07DB  1C03               	skipc
  3993     07DC  03AD               	decf	___awdiv@dividend+1,f
  3994     07DD  02AD               	subwf	___awdiv@dividend+1,f
  3995     07DE                     l1281:
  3996     07DE  1430               	bsf	___awdiv@quotient,0
  3997     07DF                     l1283:
  3998     07DF  3001               	movlw	1
  3999     07E0                     u1395:
  4000     07E0  1003               	clrc
  4001     07E1  0CAB               	rrf	___awdiv@divisor+1,f
  4002     07E2  0CAA               	rrf	___awdiv@divisor,f
  4003     07E3  3EFF               	addlw	-1
  4004     07E4  1D03               	skipz
  4005     07E5  2FE0               	goto	u1395
  4006     07E6                     l1285:
  4007     07E6  3001               	movlw	1
  4008     07E7  02AE               	subwf	___awdiv@counter,f
  4009     07E8  1D03               	btfss	3,2
  4010     07E9  2FEB               	goto	u1401
  4011     07EA  2FEC               	goto	u1400
  4012     07EB                     u1401:
  4013     07EB  2FC7               	goto	l1277
  4014     07EC                     u1400:
  4015     07EC                     l1287:
  4016     07EC  082F               	movf	___awdiv@sign,w
  4017     07ED  1903               	btfsc	3,2
  4018     07EE  2FF0               	goto	u1411
  4019     07EF  2FF1               	goto	u1410
  4020     07F0                     u1411:
  4021     07F0  2FF6               	goto	l1291
  4022     07F1                     u1410:
  4023     07F1                     l1289:
  4024     07F1  09B0               	comf	___awdiv@quotient,f
  4025     07F2  09B1               	comf	___awdiv@quotient+1,f
  4026     07F3  0AB0               	incf	___awdiv@quotient,f
  4027     07F4  1903               	skipnz
  4028     07F5  0AB1               	incf	___awdiv@quotient+1,f
  4029     07F6                     l1291:
  4030     07F6  0831               	movf	___awdiv@quotient+1,w
  4031     07F7  00AB               	movwf	?___awdiv+1
  4032     07F8  0830               	movf	___awdiv@quotient,w
  4033     07F9  00AA               	movwf	?___awdiv
  4034     07FA                     l312:
  4035     07FA  0008               	return
  4036     07FB                     __end_of___awdiv:
  4037                           
  4038                           	psect	text14
  4039     0ED7                     __ptext14:	
  4040 ;; *************** function _temp_sen *****************
  4041 ;; Defined at:
  4042 ;;		line 73 in file "main.c"
  4043 ;; Parameters:    Size  Location     Type
  4044 ;;		None
  4045 ;; Auto vars:     Size  Location     Type
  4046 ;;		None
  4047 ;; Return value:  Size  Location     Type
  4048 ;;                  1    wreg      void 
  4049 ;; Registers used:
  4050 ;;		wreg, btemp+1
  4051 ;; Tracked objects:
  4052 ;;		On entry : 0/0
  4053 ;;		On exit  : 0/0
  4054 ;;		Unchanged: 0/0
  4055 ;; Data sizes:     COMMON   BANK0   BANK1   BANK3   BANK2
  4056 ;;      Params:         0       0       0       0       0
  4057 ;;      Locals:         0       0       0       0       0
  4058 ;;      Temps:          5       0       0       0       0
  4059 ;;      Totals:         5       0       0       0       0
  4060 ;;Total ram usage:        5 bytes
  4061 ;; Hardware stack levels used: 1
  4062 ;; This function calls:
  4063 ;;		Nothing
  4064 ;; This function is called by:
  4065 ;;		Interrupt level 1
  4066 ;; This function uses a non-reentrant model
  4067 ;;
  4068                           
  4069     0ED7                     _temp_sen:	
  4070                           ;psect for function _temp_sen
  4071                           
  4072     0ED7                     i1l1155:
  4073                           
  4074                           ;main.c: 75:     if(PIR1bits.ADIF == 1)
  4075     0ED7  1283               	bcf	3,5	;RP0=0, select bank0
  4076     0ED8  1303               	bcf	3,6	;RP1=0, select bank0
  4077     0ED9  1F0C               	btfss	12,6	;volatile
  4078     0EDA  2EDC               	goto	u127_21
  4079     0EDB  2EDD               	goto	u127_20
  4080     0EDC                     u127_21:
  4081     0EDC  2EF7               	goto	i1l65
  4082     0EDD                     u127_20:
  4083     0EDD                     i1l1157:
  4084                           
  4085                           ;main.c: 76:     {;main.c: 77:         adc = (ADRESH<<8);
  4086     0EDD  081E               	movf	30,w	;volatile
  4087     0EDE  00F0               	movwf	??_temp_sen
  4088     0EDF  01F1               	clrf	??_temp_sen+1
  4089     0EE0  0870               	movf	??_temp_sen,w
  4090     0EE1  00F1               	movwf	??_temp_sen+1
  4091     0EE2  01F0               	clrf	??_temp_sen
  4092     0EE3  0870               	movf	??_temp_sen,w
  4093     0EE4  00F7               	movwf	_adc
  4094     0EE5  0871               	movf	??_temp_sen+1,w
  4095     0EE6  00F8               	movwf	_adc+1
  4096     0EE7                     i1l1159:
  4097                           
  4098                           ;main.c: 78:         adc = adc + ADRESL;
  4099     0EE7  1683               	bsf	3,5	;RP0=1, select bank1
  4100     0EE8  1303               	bcf	3,6	;RP1=0, select bank1
  4101     0EE9  081E               	movf	30,w	;volatile
  4102     0EEA  0777               	addwf	_adc,w
  4103     0EEB  00F0               	movwf	??_temp_sen
  4104     0EEC  0878               	movf	_adc+1,w
  4105     0EED  1803               	skipnc
  4106     0EEE  0A78               	incf	_adc+1,w
  4107     0EEF  00F1               	movwf	??_temp_sen+1
  4108     0EF0  0870               	movf	??_temp_sen,w
  4109     0EF1  00F7               	movwf	_adc
  4110     0EF2  0871               	movf	??_temp_sen+1,w
  4111     0EF3  00F8               	movwf	_adc+1
  4112     0EF4                     i1l1161:
  4113                           
  4114                           ;main.c: 80:         PIR1bits.ADIF = 0;
  4115     0EF4  1283               	bcf	3,5	;RP0=0, select bank0
  4116     0EF5  1303               	bcf	3,6	;RP1=0, select bank0
  4117     0EF6  130C               	bcf	12,6	;volatile
  4118     0EF7                     i1l65:
  4119     0EF7  0874               	movf	??_temp_sen+4,w
  4120     0EF8  00FF               	movwf	btemp+1
  4121     0EF9  0873               	movf	??_temp_sen+3,w
  4122     0EFA  008A               	movwf	10
  4123     0EFB  0E72               	swapf	??_temp_sen+2,w
  4124     0EFC  0083               	movwf	3
  4125     0EFD  0EFE               	swapf	btemp,f
  4126     0EFE  0E7E               	swapf	btemp,w
  4127     0EFF  0009               	retfie
  4128     0F00                     __end_of_temp_sen:
  4129     0002                     ___latbits      equ	2
  4130     007E                     btemp           set	126	;btemp
  4131     007E                     wtemp0          set	126
  4132                           
  4133                           	psect	intentry
  4134     0004                     __pintentry:	
  4135                           ;incstack = 0
  4136                           ; Regs used in _temp_sen: [wreg+btemp+1]
  4137                           
  4138     0004                     interrupt_function:
  4139     007E                     saved_w         set	btemp
  4140     0004  00FE               	movwf	btemp
  4141     0005  0E03               	swapf	3,w
  4142     0006  00F2               	movwf	??_temp_sen+2
  4143     0007  080A               	movf	10,w
  4144     0008  00F3               	movwf	??_temp_sen+3
  4145     0009  087F               	movf	btemp+1,w
  4146     000A  00F4               	movwf	??_temp_sen+4
  4147     000B  120A  158A  2ED7   	ljmp	_temp_sen
  4148                           
  4149                           	psect	config
  4150                           
  4151                           ;Config register CONFIG @ 0x2007
  4152                           ;	Oscillator Selection bits
  4153                           ;	FOSC = HS, HS oscillator
  4154                           ;	Watchdog Timer Enable bit
  4155                           ;	WDTE = OFF, WDT disabled
  4156                           ;	Power-up Timer Enable bit
  4157                           ;	PWRTE = OFF, PWRT disabled
  4158                           ;	Brown-out Reset Enable bit
  4159                           ;	BOREN = ON, BOR enabled
  4160                           ;	Low-Voltage (Single-Supply) In-Circuit Serial Programming Enable bit
  4161                           ;	LVP = ON, RB3/PGM pin has PGM function; low-voltage programming enabled
  4162                           ;	Data EEPROM Memory Code Protection bit
  4163                           ;	CPD = OFF, Data EEPROM code protection off
  4164                           ;	Flash Program Memory Write Enable bits
  4165                           ;	WRT = OFF, Write protection off; all program memory may be written to by EECON control
  4166                           ;	In-Circuit Debugger Mode bit
  4167                           ;	DEBUG = 0x1, unprogrammed default
  4168                           ;	Flash Program Memory Code Protection bit
  4169                           ;	CP = ON, All program memory code-protected
  4170     2007                     	org	8199
  4171     2007  1FFA               	dw	8186

Data Sizes:
    Strings     7
    Constant    0
    Data        0
    BSS         24
    Persistent  0
    Stack       0

Auto Spaces:
    Space          Size  Autos    Used
    COMMON           14      5       9
    BANK0            80     40      60
    BANK1            80      0       0
    BANK3            96      0       0
    BANK2            96      0       0

Pointer List with Targets:

    lcd_string@str	PTR unsigned char  size(1) Largest target is 7
		 -> STR_1(CODE[7]), 


Critical Paths under _main in COMMON

    None.

Critical Paths under _temp_sen in COMMON

    None.

Critical Paths under _main in BANK0

    _main->___fldiv
    _lcd_string->_lcd_data
    _lcd_initialization->_lcd_cmd
    ___flmul->__Umul8_16
    ___fldiv->___xxtofl
    ___awmod->___fltol
    ___awdiv->___fltol

Critical Paths under _temp_sen in BANK0

    None.

Critical Paths under _main in BANK1

    None.

Critical Paths under _temp_sen in BANK1

    None.

Critical Paths under _main in BANK3

    None.

Critical Paths under _temp_sen in BANK3

    None.

Critical Paths under _main in BANK2

    None.

Critical Paths under _temp_sen in BANK2

    None.

Call Graph Tables:

 ---------------------------------------------------------------------------------
 (Depth) Function   	        Calls       Base Space   Used Autos Params    Refs
 ---------------------------------------------------------------------------------
 (0) _main                                                 0     0      0    5833
                            ___awdiv
                            ___awmod
                            ___fldiv
                            ___flmul
                            ___fltol
                            ___lwdiv
                            ___lwmod
                           ___xxtofl
                            _lcd_cmd
                           _lcd_data
                 _lcd_initialization
                         _lcd_string
 ---------------------------------------------------------------------------------
 (1) _lcd_string                                           5     2      3     183
                                              3 BANK0      5     2      3
                           _lcd_data
 ---------------------------------------------------------------------------------
 (2) _lcd_data                                             3     3      0      47
                                              0 BANK0      3     3      0
 ---------------------------------------------------------------------------------
 (1) _lcd_initialization                                   0     0      0      47
                            _lcd_cmd
 ---------------------------------------------------------------------------------
 (2) _lcd_cmd                                              3     3      0      47
                                              0 BANK0      3     3      0
 ---------------------------------------------------------------------------------
 (1) ___xxtofl                                            14    10      4     511
                                              0 BANK0     14    10      4
 ---------------------------------------------------------------------------------
 (1) ___lwmod                                              5     1      4     244
                                              0 BANK0      5     1      4
 ---------------------------------------------------------------------------------
 (1) ___lwdiv                                              7     3      4     253
                                              0 BANK0      7     3      4
 ---------------------------------------------------------------------------------
 (1) ___fltol                                             10     6      4     343
                                              0 BANK0     10     6      4
 ---------------------------------------------------------------------------------
 (1) ___flmul                                             26    18      8    2434
                                              9 BANK0     26    18      8
                          __Umul8_16
 ---------------------------------------------------------------------------------
 (2) __Umul8_16                                            9     7      2     232
                                              0 BANK0      9     7      2
 ---------------------------------------------------------------------------------
 (1) ___fldiv                                             26    18      8    1124
                                             14 BANK0     26    18      8
                           ___xxtofl (ARG)
 ---------------------------------------------------------------------------------
 (1) ___awmod                                              6     2      4     298
                                             10 BANK0      6     2      4
                            ___fltol (ARG)
 ---------------------------------------------------------------------------------
 (1) ___awdiv                                              8     4      4     302
                                             10 BANK0      8     4      4
                            ___fltol (ARG)
 ---------------------------------------------------------------------------------
 Estimated maximum stack depth 2
 ---------------------------------------------------------------------------------
 (Depth) Function   	        Calls       Base Space   Used Autos Params    Refs
 ---------------------------------------------------------------------------------
 (3) _temp_sen                                             5     5      0       0
                                              0 COMMON     5     5      0
 ---------------------------------------------------------------------------------
 Estimated maximum stack depth 3
 ---------------------------------------------------------------------------------

 Call Graph Graphs:

 _main (ROOT)
   ___awdiv
     ___fltol (ARG)
   ___awmod
     ___fltol (ARG)
   ___fldiv
     ___xxtofl (ARG)
   ___flmul
     __Umul8_16
   ___fltol
   ___lwdiv
   ___lwmod
   ___xxtofl
   _lcd_cmd
   _lcd_data
   _lcd_initialization
     _lcd_cmd
   _lcd_string
     _lcd_data

 _temp_sen (ROOT)

Address spaces:
Name               Size   Autos  Total    Usage
BITCOMMON           14      0       0      0.0%
BITBANK0            80      0       0      0.0%
BITBANK1            80      0       0      0.0%
BITBANK3            96      0       0      0.0%
BITBANK2            96      0       0      0.0%
COMMON              14      5       9     64.3%
BANK0               80     40      60     75.0%
BANK1               80      0       0      0.0%
BANK3               96      0       0      0.0%
BANK2               96      0       0      0.0%
STACK                0      0       0      0.0%
DATA                 0      0      69      0.0%


Microchip Technology PIC Macro Assembler V2.50 build 20240725155939 
Symbol Table                                                                                   Thu Dec 05 20:04:11 2024

              ___fldiv@aexp 0047                ___fldiv@bexp 0046                           _a 0075  
                         _b 0058                           _c 0056                           _d 0054  
                         _e 0052                           _f 0050                           pc 0002  
              lcd_data@data 0022                ___fldiv@sign 003F                          l50 0E81  
                        l47 0E98                          l56 0ED6                          l59 0EB1  
              ___awdiv@sign 002F                          fsr 0004         __Umul8_16@word_mpld 0026  
                       l312 07FA                         l325 0FFF                         l360 0780  
                       l600 068E                         l353 0795                         l601 069F  
                       l602 071F                         l363 0795                         l540 0525  
                       l532 04A7                         l516 03B9                         l613 06E9  
                       l518 052D                         l614 06F5                         l606 06CD  
                       l439 0FA6                         l449 0F62                         l538 0519  
                       l562 02D5                         l556 0363                         l575 0F16  
                       l568 0359                         l577 0F28                         _adc 0077  
                       fsr0 0004                         indf 0000                ___awmod@sign 002F  
              ___flmul@aexp 0037                ___flmul@bexp 003C                ___flmul@sign 0036  
              ___flmul@temp 0041                ___flmul@prod 003D                ___fltol@exp1 0029  
                      l2001 0281                        l2011 02A6                        l2003 028A  
                      l1301 0FB3                        l2021 02BE                        l2013 02AF  
                      l2005 0298                        l2101 052E                        l1311 0FC7  
                      l1303 0FB5                        l2031 02ED                        l2023 02D2  
                      l2007 02A1                        l2015 02B5                        l2111 054D  
                      l2103 0533                        l1321 0FE4                        l1313 0FCE  
                      l1305 0FB9                        l2041 0328                        l2033 02F1  
                      l2017 02B9                        l2009 02A5                        l2121 05A6  
                      l2113 0551                        l2105 0535                        l1251 0796  
                      l1323 0FEB                        l1315 0FD0                        l1307 0FBE  
                      l2051 0353                        l2043 0337                        l2035 030A  
                      l2027 02DA                        l2019 02BA                        l2131 0618  
                      l2123 05AC                        l2115 0555                        l2107 053A  
                      l1261 07A8                        l1253 0799                        l1317 0FD4  
                      l1309 0FC4                        l1325 0FF1                        l1501 045A  
                      l1421 036A                        l2053 0354                        l2045 0341  
                      l2029 02DF                        l2037 0310                        l2061 0672  
                      l2141 0654                        l2133 062B                        l2125 05D0  
                      l2117 055A                        l2109 0540                        l1271 07BA  
                      l1263 07AD                        l1255 079D                        l1327 0FF6  
                      l1319 0FDE                        l1511 0477                        l1503 0460  
                      l1431 037D                        l1423 036E                        l2055 035B  
                      l2047 0343                        l2039 031D                        l2071 06A2  
                      l2063 0676                        l2143 065D                        l2135 063E  
                      l2127 05F2                        l2119 0587                        l1281 07DE  
                      l1273 07C1                        l1265 07AF                        l1257 07A2  
                      l1329 0FFB                        l1521 048C                        l1513 0478  
                      l1505 0468                        l1441 0393                        l1433 0385  
                      l1425 0372                        l1417 0364                        l2049 034F  
                      l2081 06D4                        l2073 06AD                        l2065 0686  
                      l2137 0645                        l2129 0605                        l1291 07F6  
                      l1283 07DF                        l1275 07C3                        l1267 07B1  
                      l1259 07A4                        l1531 04B1                        l1523 0490  
                      l1515 0481                        l1507 046A                        l1451 03A6  
                      l1443 0397                        l1435 0386                        l1427 0373  
                      l1419 0368                        l2091 070D                        l2083 06DF  
                      l2075 06B4                        l2067 0696                        l2059 066D  
                      l2139 064E                        l1285 07E6                        l1277 07C7  
                      l1269 07B7                        l1541 04EF                        l1533 04BF  
                      l1525 04A4                        l1509 0473                        l1517 0487  
                      l1461 03CD                        l1453 03AE                        l1445 039B  
                      l1429 0378                        l1437 0388                        l2093 0712  
                      l2085 06E3                        l2077 06B6                        l1279 07D8  
                      l1287 07EC                        l1295 0FA7                        l1551 051D  
                      l1543 04FD                        l1535 04C3                        l1519 048B  
                      l1463 03CF                        l1455 03AF                        l1447 039C  
                      l1439 0390                        l2095 0716                        l2087 06ED  
                      l2079 06C4                        l1289 07F1                        l1297 0FAA  
                      l1553 0521                        l1545 050C                        l1537 04DC  
                      l1529 04AC                        l1481 0410                        l1473 03E6  
                      l1449 03A1                        l1457 03B1                        l2097 0717  
                      l2089 06F7                        l1801 0E70                        l1299 0FAE  
                      l1555 0523                        l1547 0510                        l1539 04E2  
                      l1491 042E                        l1483 0412                        l1475 03F8  
                      l1459 03C1                        l1467 03D8                        l1811 0F05  
                      l1803 0E71                        l1549 0518                        l1485 0417  
                      l1493 0437                        l1477 0400                        l1469 03DD  
                      l1813 0F0C                        l1901 0F3B                        l1805 0E72  
                      l1495 0449                        l1487 0429                        l1479 0408  
                      l1815 0F10                        l1911 0F58                        l1903 0F3D  
                      l1807 0E7E                        l1831 0E99                        l1823 0EB2  
                      l1497 044A                        l1489 042D                        l1817 0F1F  
                      l1809 0F03                        l1921 0028                        l1841 0747  
                      l1833 0720                        l1905 0F41                        l1913 0F5E  
                      l1825 0EB7                        l1499 0458                        l1819 0F24  
                      l1931 003B                        l1923 002C                        l1843 0748  
                      l1835 072B                        l1907 0F4B                        l1827 0EC4  
                      l1941 0054                        l1933 0043                        l1925 0030  
                      l1917 0022                        l1845 0750                        l1909 0F51  
                      l1829 0ECC                        l1951 006B                        l1943 0058  
                      l1935 0045                        l1927 0031                        l1919 0026  
                      l1863 0775                        l1855 075E                        l1847 0752  
                      l1839 0734                        l1871 0F67                        l1791 0E87  
                      l1953 006D                        l1945 0059                        l1937 004D  
                      l1929 0036                        l1865 0785                        l1849 0756  
                      l1857 076E                        l1881 0F7D                        l1873 0F6D  
                      l1793 0E88                        l1971 00DA                        l1963 0088  
                      l1955 0075                        l1947 005E                        l1939 0050  
                      l1867 078A                        l1883 0F8E                        l1875 0F70  
                      l1891 0FA2                        l1795 0E89                        l1981 0153  
                      l1973 0104                        l1965 0096                        l1957 007A  
                      l1949 0063                        l1885 0F94                        l1877 0F77  
                      l1869 0F63                        l1797 0E95                        l1789 0E85  
                      l1991 01CF                        l1983 0170                        l1975 0120  
                      l1967 00A3                        l1959 007F                        l1887 0F95  
                      l1879 0F79                        l1895 0F29                        l1799 0E6E  
                      l1993 01FA                        l1985 017E                        l1977 013C  
                      l1969 00BE                        l1889 0F9C                        l1897 0F31  
                      l1995 0208                        l1987 019B                        l1979 0145  
                      l1899 0F34                        l1997 0233                        l1989 01B2  
                      l1999 0259                        STR_1 0806                        u2000 04EF  
                      u2001 04EE                        u2010 050C                        u2011 050B  
                      u2020 0521                        u2021 0520                        u2005 04EB  
                      u2015 0508                        u1400 07EC                        u1320 079D  
                      u3000 023F                        u1401 07EB                        u1321 079C  
                      u1410 07F1                        u1330 07A8                        u1411 07F0  
                      u1331 07A7                        u3011 024B                        u1340 07B7  
                      u1500 0FF6                        u1420 0FAE                        u3100 02D2  
                      u3020 0267                        u3012 0252                        u1341 07B6  
                      u1501 0FF5                        u1421 0FAD                        u3101 02D1  
                      u3013 0259                        u3005 023A                        u1430 0FB9  
                      u3110 02D9                        u1431 0FB8                        u3111 02D8  
                      u3031 0273                        u1360 07C7                        u1440 0FC4  
                      u3120 02DF                        u3032 027A                        u3200 0696  
                      u1361 07C6                        u1441 0FC3                        u3121 02DE  
                      u3033 0281                        u3025 0262                        u3201 0695  
                      u3130 02F1                        u1355 07BB                        u3131 02F0  
                      u1380 07D8                        u1460 0FD4                        u3140 0300  
                      u3060 02A5                        u3300 0712                        u3220 06B3  
                      u1381 07D7                        u1461 0FD3                        u3061 02A4  
                      u3045 0283                        u3301 0711                        u3221 06B2  
                      u1470 0FDE                        u3150 031D                        u3310 0716  
                      u1375 07C8                        u1471 0FDD                        u1455 0FC8  
                      u3151 031C                        u3055 029A                        u3311 0715  
                      u3215 06A5                        u1800 03C1                        u3160 0337  
                      u3080 02B9                        u2600 0756                        u3240 06D3  
                      u1385 07D4                        u1801 03C0                        u3161 0336  
                      u3145 02FB                        u3081 02B8                        u2601 0755  
                      u3241 06D2                        u1490 0FF1                        u1810 03DD  
                      u3170 0353                        u3090 02BE                        u2610 075D  
                      u1395 07E0                        u1491 0FF0                        u1475 0FDA  
                      u1811 03DC                        u3171 0352                        u3155 0319  
                      u3091 02BD                        u3075 02A8                        u2611 075C  
                      u3235 06C5                        u1820 0417                        u1740 0372  
                      u2540 0F10                        u2700 0F7D                        u3260 06E3  
                      u3180 0672                        u1485 0FE5                        u1821 0416  
                      u1741 0371                        u2541 0F0F                        u3165 0333  
                      u2701 0F7C                        u3261 06E2                        u3181 0671  
                      u1910 0477                        u1750 0378                        u2630 076D  
                      u3270 06E9                        u3190 0676                        u1911 0476  
                      u1751 0377                        u2631 076C                        u3271 06E8  
                      u3255 06D8                        u3191 0675                        u3327 0E90  
                      u1760 037D                        u2560 0F24                        u2640 0774  
                      u2720 0F8E                        u2800 0F5E                        u3280 06ED  
                      u1905 046C                        u1761 037C                        u2561 0F23  
                      u2641 0773                        u2625 075F                        u2721 0F8D  
                      u2801 0F5D                        u3281 06EC                        u3337 0E79  
                      u1930 048B                        u1850 042D                        u1770 039B  
                      u2810 0030                        u3290 0702                        u2570 0ED6  
                      u1931 048A                        u1851 042C                        u1835 0419  
                      u1771 039A                        u2555 0F17                        u2811 002F  
                      u2715 0F7E                        u2571 0ED5                        u1940 0490  
                      u1780 03A1                        u2820 0036                        u2660 0785  
                      u2580 072B                        u2740 0FA2                        u1941 048F  
                      u1925 047A                        u1845 0422                        u1781 03A0  
                      u2901 00E8                        u2821 0035                        u2661 0784  
                      u2581 072A                        u2741 0FA1                        u2725 0F8A  
                      u1950 04A4                        u1870 0449                        u1790 03A6  
                      u2902 00EF                        u2830 003B                        u2670 078A  
                      u2590 0742                        u2750 0F31                        u1951 04A3  
                      u1871 0448                        u1791 03A5                        u2911 0112  
                      u2903 00F6                        u2831 003A                        u2671 0789  
                      u2655 0777                        u2735 0F96                        u2751 0F30  
                      u3295 06FD                        u2575 0ED2                        u1960 04AB  
                      u1880 0460                        u2912 0119                        u2840 0058  
                      u2680 0F6D                        u1961 04AA                        u1881 045F  
                      u1865 0430                        u2921 012E                        u2913 0120  
                      u2841 0057                        u2681 0F6C                        u1970 04B1  
                      u1890 0468                        u2922 0135                        u2850 005E  
                      u2770 0F41                        u1971 04B0                        u1891 0467  
                      u1875 0445                        u2923 013C                        u2851 005D  
                      u2595 073D                        u2771 0F40                        u1980 04C3  
                      u2860 0063                        u2780 0F4B                        u1981 04C2  
                      u2941 0162                        u2861 0062                        u2781 0F4A  
                      u2765 0F35                        u1990 04D2                        u2942 0169  
                      u2870 007A                        u2951 018D                        u2943 0170  
                      u2935 013E                        u2871 0079                        u2695 0F71  
                      u2952 0194                        u2880 007F                        u2953 019B  
                      u2881 007E                        u2785 0F47                        u1995 04CD  
                      u2971 01C1                        u2891 00CC                        u2795 0F52  
                      u2972 01C8                        u2892 00D3                        u2981 01EC  
                      u2973 01CF                        u2965 019D                        u2893 00DA  
                      u2982 01F3                        u2991 0217                        u2983 01FA  
                      u2992 021E                        i1l65 0EF7                        u2993 0225  
                      _adc1 0048                        _main 052E                        _temp 005A  
                      btemp 007E                        start 000E                 lcd_string@i 0026  
               lcd_string@n 0024             ___fldiv@new_exp 0040               ___fltol@sign1 0028  
                     ?_main 0070             __end_of___fldiv 052E             __end_of___awdiv 07FB  
           __end_of___awmod 1000             __end_of___flmul 0364             __end_of___fltol 0796  
           ___awdiv@divisor 002A             __end_of___lwdiv 0FA7             __end_of___lwmod 0F63  
           ___awdiv@counter 002E                       _PORTC 0007                       _TRISB 0086  
                     _TRISC 0087             __end_of_lcd_cmd 0E82                       pclath 000A  
                     status 0003                       wtemp0 007E             __initialization 0011  
              __end_of_main 066A                      ??_main 0075                      _ADCON0 001F  
                    _ADCON1 009F                      _ADRESH 001E                      _ADRESL 009E  
          ___awdiv@dividend 002C                      i1l1161 0EF4                      i1l1155 0ED7  
                    i1l1157 0EDD                      i1l1159 0EE7                      u127_20 0EDD  
                    u127_21 0EDC            __end_of___xxtofl 0720            __end_of_lcd_data 0E99  
                 ??___fldiv 0036                   ??___awdiv 0075                   ??___awmod 0075  
                 ??___flmul 0031                   ??___fltol 0024                   ??___lwdiv 0075  
                 ??___lwmod 0075            ___awdiv@quotient 0030             ___awmod@divisor 002A  
           ___awmod@counter 002E                   ??_lcd_cmd 0020            __end_of_temp_sen 0F00  
                    saved_w 007E                ___xxtofl@arg 002A               lcd_string@str 0023  
              ___xxtofl@exp 0029                ___xxtofl@val 0020     __end_of__initialization 001E  
                ___fltol@f1 0020              __pcstackCOMMON 0070                  __pbssBANK0 0048  
         __end_of__Umul8_16 0F29                  __pmaintext 052E                  __pintentry 0004  
                 ?___xxtofl 0020                   ?_lcd_data 0070                  _lcd_string 0EB2  
                __stringtab 0800                   ?_temp_sen 0070                     ___fldiv 0364  
                   ___awdiv 0796                     ___awmod 0FA7                     ___flmul 0022  
                   ___fltol 0720                     ___lwdiv 0F63                     ___lwmod 0F29  
                   __ptext1 0EB2                     __ptext2 0E82                     __ptext3 0E99  
                   __ptext4 0E6B                     __ptext5 066A                     __ptext6 0F29  
                   __ptext7 0F63                     __ptext8 0720                     __ptext9 0022  
                   _lcd_cmd 0E6B                  ??___xxtofl 0024            ___awmod@dividend 002C  
                ??_lcd_data 0020                     clrloop0 0E64        end_of_initialization 001E  
                ??_temp_sen 0070                   _PORTBbits 0006  __end_of_lcd_initialization 0EB2  
             ___xxtofl@sign 0028                  lcd_cmd@cmd 0022                 ___fldiv@grs 0042  
               ___fldiv@rem 003B                 ?_lcd_string 0023                 ___flmul@grs 0038  
       start_initialization 0011                   __Umul8_16 0F00                   ___fldiv@a 002E  
                 ___fldiv@b 0032                   ___flmul@a 002D                   ___flmul@b 0029  
               __pbssCOMMON 0075                   ___latbits 0002               __pcstackBANK0 0020  
          ___lwdiv@dividend 0022                    ?___fldiv 002E                    ?___awdiv 002A  
                  ?___awmod 002A                    ?___flmul 0029                    ?___fltol 0020  
                ?__Umul8_16 0020                    ?___lwdiv 0020                    ?___lwmod 0020  
                 __pstrings 0800                    ?_lcd_cmd 0070            ___lwdiv@quotient 0025  
         interrupt_function 0004                   clear_ram0 0E63                    _PIE1bits 008C  
                  _PIR1bits 000C                 __stringbase 0805                ??_lcd_string 0075  
        _lcd_initialization 0E99         ?_lcd_initialization 0070                 ??__Umul8_16 0022  
        __end_of_lcd_string 0ED7          __end_of__stringtab 0806                    ___xxtofl 066A  
      ??_lcd_initialization 0075             ___lwdiv@divisor 0020             ___lwdiv@counter 0024  
                  __ptext10 0F00                    __ptext11 0364                    __ptext12 0FA7  
                  __ptext13 0796                    __ptext14 0ED7                    _lcd_data 0E82  
                  _temp_sen 0ED7                  _INTCONbits 000B                    intlevel1 0000  
          ___lwmod@dividend 0022                   stringcode 0800      __Umul8_16@multiplicand 0020  
               _temperature 004C             ___lwmod@divisor 0020             ___lwmod@counter 0024  
                  stringdir 0800                    stringtab 0800        __Umul8_16@multiplier 0028  
         __Umul8_16@product 0024  
